(lp0
(lp1
F233.9372071243742
aa(lp2
F234.98018704927884
aa(lp3
F235.92409818519548
aa(lp4
F233.31579364793586
aa(lp5
F235.9014857656548
aa(lp6
F233.53019598920255
aa(lp7
F229.14086774376193
aa(lp8
F237.8451431381119
aa(lp9
F227.41106203810395
aa(lp10
F236.0050800806083
aa(lp11
F236.63877555328193
aa(lp12
F235.27456725181779
aa(lp13
F233.37829520000597
aa(lp14
F228.65714430278527
aa(lp15
F234.18366219629092
aa(lp16
F231.10872545866775
aa(lp17
F228.39615921631636
aa(lp18
F231.6536324337949
aa(lp19
F236.78113592284845
aa(lp20
F234.419712811159
aa(lp21
F233.8131906711896
aa(lp22
F233.4500694396158
aa(lp23
F235.46863359474332
aa(lp24
F236.90827157129092
aa(lp25
F234.71380882966466
aa(lp26
F233.67885062380802
aa(lp27
F235.9660869581413
aa(lp28
F229.4723652368583
aa(lp29
F232.951119725445
aa(lp30
F238.09040761706333
aa(lp31
F229.49694956144708
aa(lp32
F230.5091044431421
aa(lp33
F230.2619386783316
aa(lp34
F230.8694319485557
aa(lp35
F237.08144301543626
aa(lp36
F235.07095738512197
aa(lp37
F232.16644322030953
aa(lp38
F233.43512797128298
aa(lp39
F237.71635857040687
aa(lp40
F236.19854344430428
aa(lp41
F233.5343803701625
aa(lp42
F237.0761001693619
aa(lp43
F232.30166080811944
aa(lp44
F236.2488039747894
aa(lp45
F234.67307257728066
aa(lp46
F237.15328647737206
aa(lp47
F237.12335371925658
aa(lp48
F235.67842023477232
aa(lp49
F234.5292912875477
aa(lp50
F237.05283401789973
aa(lp51
F230.41490092826209
aa(lp52
F232.43725151357876
aa(lp53
F237.20454141916323
aa(lp54
F235.71610946315758
aa(lp55
F230.09889371548195
aa(lp56
F232.64968986535482
aa(lp57
F236.78188045087015
aa(lp58
F234.79087112727473
aa(lp59
F231.11412324802328
aa(lp60
F237.3776753032124
aa(lp61
F228.9457900719664
aa(lp62
F238.96419762322193
aa(lp63
F235.15137712074858
aa(lp64
F229.81955648665965
aa(lp65
F232.41870753536236
aa(lp66
F231.53768255448387
aa(lp67
F236.83274520224094
aa(lp68
F235.6287404889145
aa(lp69
F229.62181965318064
aa(lp70
F238.94953226815798
aa(lp71
F237.09591125759894
aa(lp72
F231.03045766821955
aa(lp73
F229.57441632852232
aa(lp74
F237.7376099796865
aa(lp75
F237.17637289911792
aa(lp76
F233.5310165686586
aa(lp77
F234.14548794600287
aa(lp78
F232.09059091654083
aa(lp79
F228.6623223190162
aa(lp80
F229.95592726254569
aa(lp81
F233.89793819905236
aa(lp82
F233.66417005845716
aa(lp83
F236.18434479671606
aa(lp84
F236.3834311551375
aa(lp85
F237.44601186278211
aa(lp86
F237.14990715516728
aa(lp87
F231.2734741288541
aa(lp88
F235.30955556783417
aa(lp89
F229.9605066453433
aa(lp90
F236.43523925470836
aa(lp91
F236.46261932314843
aa(lp92
F233.08601230977828
aa(lp93
F229.9651960699102
aa(lp94
F237.42500800868166
aa(lp95
F231.1768363472465
aa(lp96
F235.32750370634338
aa(lp97
F227.4880683059838
aa(lp98
F230.44130458940916
aa(lp99
F228.70547436849373
aa(lp100
F236.29960369442347
aa(lp101
F238.47004318479816
aa(lp102
F236.10668495212175
aa(lp103
F230.07643557170812
aa(lp104
F234.31112765962732
aa(lp105
F230.31352715998491
aa(lp106
F236.30004820729695
aa(lp107
F234.3318099248053
aa(lp108
F234.12974421264104
aa(lp109
F229.19023521311786
aa(lp110
F236.0698953035601
aa(lp111
F229.68151102714756
aa(lp112
F236.55527744184084
aa(lp113
F231.90267899713922
aa(lp114
F228.71694245917436
aa(lp115
F236.70205717577878
aa(lp116
F226.12976516558726
aa(lp117
F237.11707311243444
aa(lp118
F231.66957591857715
aa(lp119
F236.32557913943302
aa(lp120
F229.88257161872218
aa(lp121
F237.47892832043667
aa(lp122
F225.4711305651025
aa(lp123
F235.63229829917952
aa(lp124
F238.195382343154
aa(lp125
F234.52296380820883
aa(lp126
F232.55126875521495
aa(lp127
F234.93597322865344
aa(lp128
F234.5501899112961
aa(lp129
F236.5312900434083
aa(lp130
F232.7762956370689
aa(lp131
F234.9860472003139
aa(lp132
F237.81758644409567
aa(lp133
F235.01165387347027
aa(lp134
F234.9243738328433
aa(lp135
F236.20175141797122
aa(lp136
F236.4357508170097
aa(lp137
F232.3685317479041
aa(lp138
F237.12466459765378
aa(lp139
F230.87621340839559
aa(lp140
F238.84493966172323
aa(lp141
F232.98483084298513
aa(lp142
F235.1843696298375
aa(lp143
F228.80326720066157
aa(lp144
F233.5280150203135
aa(lp145
F233.62091122655752
aa(lp146
F232.90210597286236
aa(lp147
F235.96788937713563
aa(lp148
F235.03359160814327
aa(lp149
F229.20266574246065
aa(lp150
F232.6989205973359
aa(lp151
F235.51977213127782
aa(lp152
F232.84288953234267
aa(lp153
F235.81429574509298
aa(lp154
F235.68027914911792
aa(lp155
F237.631348121871
aa(lp156
F231.1585256451645
aa(lp157
F230.87224352352195
aa(lp158
F231.6914009729617
aa(lp159
F231.71217853524317
aa(lp160
F229.17559329431222
aa(lp161
F231.67637538243008
aa(lp162
F227.3568046167256
aa(lp163
F232.8521535282899
aa(lp164
F237.85723981717857
aa(lp165
F234.7069298998232
aa(lp166
F237.09542577007508
aa(lp167
F236.37393652157502
aa(lp168
F233.50673225921807
aa(lp169
F233.73466011527535
aa(lp170
F232.10106801046965
aa(lp171
F236.37172870187342
aa(lp172
F237.57184113383065
aa(lp173
F237.30023787026184
aa(lp174
F231.75987535635528
aa(lp175
F233.9268573001927
aa(lp176
F227.24784060488517
aa(lp177
F235.7661114187659
aa(lp178
F235.51438908658812
aa(lp179
F232.25701675366537
aa(lp180
F233.80583541103783
aa(lp181
F234.15053419148325
aa(lp182
F236.6037791665011
aa(lp183
F235.43736264179714
aa(lp184
F231.87618702320407
aa(lp185
F237.10910385335546
aa(lp186
F235.0432375685394
aa(lp187
F237.10999877696878
aa(lp188
F230.1213970244954
aa(lp189
F234.43078186461975
aa(lp190
F230.22887586046767
aa(lp191
F232.10795470066157
aa(lp192
F228.24195996652495
aa(lp193
F233.16908593005007
aa(lp194
F234.44735067844087
aa(lp195
F231.64917240518713
aa(lp196
F236.1882603591366
aa(lp197
F232.09443756704943
aa(lp198
F233.56084316518
aa(lp199
F234.57168049457644
aa(lp200
F236.0175481700473
aa(lp201
F236.27223542171606
aa(lp202
F236.01066861937778
aa(lp203
F231.79455481042396
aa(lp204
F236.93998610586857
aa(lp205
F234.4211056388569
aa(lp206
F233.2019654484365
aa(lp207
F230.95464323496105
aa(lp208
F235.96935406567863
aa(lp209
F234.60512667375238
aa(lp210
F235.09934909284607
aa(lp211
F233.95691639681343
aa(lp212
F233.29551414494597
aa(lp213
F232.05484472470002
aa(lp214
F237.66823493002028
aa(lp215
F236.03099778861053
aa(lp216
F234.42859344579426
aa(lp217
F233.60503665368722
aa(lp218
F232.2649155487623
aa(lp219
F230.55801513827083
aa(lp220
F233.00284137471195
aa(lp221
F228.21775527827995
aa(lp222
F236.39272246751827
aa(lp223
F237.83214005011325
aa(lp224
F232.2692978186586
aa(lp225
F235.4110491559222
aa(lp226
F231.42798751763152
aa(lp227
F235.94419873450414
aa(lp228
F233.89939714493602
aa(lp229
F230.76101209248847
aa(lp230
F230.26334330176215
aa(lp231
F235.03100011671566
aa(lp232
F236.1987601132887
aa(lp233
F230.2555855898363
aa(lp234
F230.4101683561467
aa(lp235
F235.85415818201685
aa(lp236
F235.29869154283216
aa(lp237
F235.56692510703076
aa(lp238
F235.2729122794819
aa(lp239
F236.20961141131596
aa(lp240
F238.02003644881398
aa(lp241
F233.58202736982477
aa(lp242
F229.42875036008027
aa(lp243
F234.9724364768754
aa(lp244
F232.50224243086458
aa(lp245
F232.04964994611214
aa(lp246
F229.35739517939447
aa(lp247
F236.76767528458757
aa(lp248
F236.01997374518237
aa(lp249
F234.90685360005762
aa(lp250
F233.7377287130483
aa(lp251
F235.35652586493762
aa(lp252
F234.20144348726558
aa(lp253
F236.43198813349292
aa(lp254
F235.11565172664695
aa(lp255
F235.6483415820685
aa(lp256
F228.1306292030058
aa(lp257
F232.4214880689268
aa(lp258
F235.0467983277376
aa(lp259
F234.38339064610815
aa(lp260
F238.15971359961063
aa(lp261
F228.807599804315
aa(lp262
F226.35704410114033
aa(lp263
F236.96007004802726
aa(lp264
F235.46918147548473
aa(lp265
F238.48959212839716
aa(lp266
F229.18670518490742
aa(lp267
F232.05442178560077
aa(lp268
F236.64996442655357
aa(lp269
F237.66212054990464
aa(lp270
F236.56458303326644
aa(lp271
F237.04698892194455
aa(lp272
F237.89696520631358
aa(lp273
F235.40843065847505
aa(lp274
F237.68596686516608
aa(lp275
F236.56858225226478
aa(lp276
F236.17848743940718
aa(lp277
F236.10657832490662
aa(lp278
F237.62113829441157
aa.