(lp0
(lp1
I6851
aI9216
aI822
aI18254
aI402
aI307
aI169
aI174
aI115
aI298
aa(lp2
I6935
aI1446
aI7671
aI700
aI293
aI179
aI133
aI18215
aI489
aI547
aa(lp3
I647
aI1173
aI7464
aI18306
aI683
aI7063
aI426
aI504
aI249
aI93
aa(lp4
I4041
aI3318
aI1828
aI1031
aI2270
aI3583
aI1085
aI18215
aI710
aI527
aa(lp5
I1521
aI8314
aI6269
aI720
aI386
aI473
aI295
aI271
aI18225
aI134
aa(lp6
I6171
aI2707
aI4733
aI903
aI1032
aI423
aI476
aI18257
aI714
aI1192
aa(lp7
I2469
aI7625
aI1892
aI2336
aI430
aI1056
aI279
aI18371
aI1923
aI227
aa(lp8
I8668
aI550
aI6413
aI1325
aI655
aI176
aI219
aI18217
aI159
aI226
aa(lp9
I5817
aI1127
aI5379
aI103
aI652
aI846
aI3632
aI18216
aI424
aI412
aa(lp10
I1730
aI1853
aI1485
aI18577
aI551
aI312
aI3452
aI7067
aI663
aI918
aa(lp11
I8248
aI3798
aI805
aI18532
aI3666
aI516
aI218
aI257
aI178
aI390
aa(lp12
I7019
aI18396
aI6937
aI686
aI1089
aI557
aI599
aI585
aI136
aI604
aa(lp13
I7622
aI6726
aI1838
aI176
aI170
aI972
aI387
aI18215
aI165
aI337
aa(lp14
I5975
aI6999
aI1198
aI18576
aI1632
aI425
aI457
aI386
aI463
aI497
aa(lp15
I7902
aI6885
aI943
aI18369
aI487
aI262
aI225
aI141
aI811
aI583
aa(lp16
I3920
aI18597
aI2225
aI1260
aI1302
aI851
aI573
aI6905
aI447
aI528
aa(lp17
I1398
aI5934
aI18261
aI6588
aI2009
aI402
aI478
aI474
aI301
aI763
aa(lp18
I549
aI18512
aI3258
aI1020
aI6442
aI1655
aI278
aI427
aI326
aI4141
aa(lp19
I18393
aI764
aI3936
aI8239
aI2150
aI2060
aI368
aI258
aI188
aI252
aa(lp20
I8206
aI909
aI7365
aI607
aI403
aI215
aI119
aI18216
aI192
aI376
aa(lp21
I867
aI6946
aI7917
aI18383
aI1334
aI327
aI244
aI243
aI248
aI99
aa(lp22
I8141
aI359
aI7929
aI624
aI459
aI147
aI392
aI18220
aI191
aI146
aa(lp23
I6471
aI6678
aI1292
aI220
aI343
aI212
aI1920
aI18215
aI209
aI1048
aa(lp24
I2242
aI915
aI8051
aI4697
aI295
aI266
aI225
aI18329
aI607
aI981
aa(lp25
I7418
aI619
aI6933
aI18243
aI804
aI148
aI1517
aI611
aI182
aI133
aa(lp26
I8888
aI7049
aI313
aI205
aI146
aI325
aI957
aI18215
aI156
aI354
aa(lp27
I7291
aI4259
aI1622
aI750
aI265
aI367
aI1500
aI18218
aI1857
aI479
aa(lp28
I3406
aI18477
aI948
aI7074
aI3599
aI676
aI555
aI1067
aI495
aI311
aa(lp29
I7719
aI18432
aI292
aI658
aI431
aI6723
aI410
aI1073
aI651
aI219
aa(lp30
I2237
aI18272
aI7115
aI211
aI252
aI414
aI7635
aI271
aI112
aI89
aa(lp31
I4507
aI1086
aI3120
aI5786
aI342
aI927
aI790
aI436
aI18415
aI1199
aa(lp32
I945
aI19010
aI3697
aI5665
aI1467
aI1683
aI666
aI1447
aI301
aI1727
aa(lp33
I18664
aI5839
aI479
aI340
aI1649
aI1197
aI1322
aI2810
aI3825
aI483
aa(lp34
I7209
aI1131
aI7024
aI18299
aI372
aI125
aI288
aI957
aI632
aI571
aa(lp35
I1720
aI7441
aI5858
aI276
aI2212
aI472
aI195
aI18225
aI112
aI97
aa(lp36
I8175
aI2313
aI6827
aI109
aI364
aI159
aI133
aI18292
aI129
aI107
aa(lp37
I1034
aI5508
aI4331
aI746
aI448
aI1662
aI1863
aI18223
aI955
aI1838
aa(lp38
I18547
aI1202
aI5948
aI5996
aI1011
aI2238
aI633
aI434
aI236
aI363
aa(lp39
I4274
aI353
aI7370
aI821
aI226
aI4256
aI772
aI18226
aI176
aI134
aa(lp40
I7464
aI6747
aI1357
aI812
aI541
aI316
aI297
aI348
aI18293
aI433
aa(lp41
I2095
aI6766
aI2989
aI771
aI1280
aI1921
aI1699
aI18215
aI509
aI363
aa(lp42
I8302
aI18339
aI7171
aI209
aI284
aI914
aI171
aI217
aI197
aI804
aa(lp43
I1748
aI4214
aI1894
aI1004
aI6561
aI649
aI956
aI18215
aI575
aI792
aa(lp44
I710
aI7650
aI7762
aI528
aI179
aI161
aI398
aI18215
aI604
aI401
aa(lp45
I8626
aI557
aI945
aI6478
aI717
aI273
aI580
aI18280
aI105
aI47
aa(lp46
I7989
aI997
aI8000
aI620
aI148
aI164
aI191
aI18233
aI189
aI77
aa(lp47
I8259
aI18436
aI7960
aI506
aI177
aI155
aI145
aI383
aI211
aI376
aa(lp48
I1120
aI7298
aI5876
aI515
aI2278
aI855
aI167
aI136
aI18244
aI119
aa(lp49
I6663
aI1991
aI1216
aI1011
aI680
aI298
aI5222
aI18215
aI885
aI427
aa(lp50
I7799
aI18343
aI1344
aI7033
aI392
aI1184
aI195
aI113
aI92
aI113
aa(lp51
I4975
aI1776
aI7144
aI18448
aI1275
aI894
aI296
aI452
aI499
aI849
aa(lp52
I1753
aI3269
aI2234
aI6099
aI2186
aI1233
aI479
aI662
aI18299
aI394
aa(lp53
I7644
aI2451
aI1668
aI1280
aI3850
aI828
aI200
aI192
aI18244
aI251
aa(lp54
I8180
aI18461
aI7622
aI532
aI143
aI136
aI141
aI250
aI545
aI598
aa(lp55
I2424
aI1193
aI2811
aI18712
aI1635
aI1041
aI7783
aI571
aI214
aI224
aa(lp56
I5076
aI1037
aI6121
aI1588
aI428
aI773
aI1360
aI18222
aI1100
aI903
aa(lp57
I2065
aI1951
aI2292
aI1460
aI3535
aI5781
aI847
aI132
aI18289
aI256
aa(lp58
I5467
aI788
aI8263
aI18266
aI2143
aI201
aI441
aI298
aI495
aI246
aa(lp59
I18914
aI3589
aI2656
aI6295
aI481
aI723
aI591
aI958
aI1943
aI458
aa(lp60
I1128
aI7328
aI6995
aI316
aI592
aI1240
aI432
aI18269
aI173
aI135
aa(lp61
I5196
aI18580
aI1002
aI1110
aI1850
aI5838
aI989
aI845
aI931
aI267
aa(lp62
I7968
aI7681
aI105
aI18412
aI489
aI288
aI1147
aI219
aI98
aI201
aa(lp63
I8634
aI531
aI7285
aI18272
aI281
aI323
aI776
aI110
aI152
aI244
aa(lp64
I6259
aI4743
aI2486
aI446
aI1946
aI727
aI889
aI18215
aI531
aI366
aa(lp65
I1245
aI6196
aI2065
aI872
aI1238
aI18220
aI4043
aI1037
aI292
aI1400
aa(lp66
I2102
aI6424
aI5788
aI18282
aI158
aI1188
aI286
aI306
aI184
aI1890
aa(lp67
I1551
aI18325
aI6513
aI7352
aI120
aI1201
aI1089
aI160
aI97
aI200
aa(lp68
I469
aI8582
aI1317
aI159
aI7436
aI82
aI118
aI18218
aI60
aI167
aa(lp69
I3800
aI6948
aI1367
aI18797
aI507
aI710
aI1376
aI827
aI1877
aI399
aa(lp70
I1108
aI7732
aI1247
aI18594
aI4985
aI337
aI155
aI121
aI103
aI2226
aa(lp71
I1363
aI629
aI4056
aI2838
aI18289
aI1241
aI197
aI416
aI7293
aI286
aa(lp72
I3201
aI18877
aI2308
aI883
aI6323
aI763
aI867
aI880
aI421
aI2085
aa(lp73
I1672
aI18781
aI3742
aI5936
aI1661
aI1178
aI2128
aI741
aI249
aI520
aa(lp74
I4204
aI8578
aI674
aI18511
aI1487
aI802
aI1122
aI198
aI202
aI830
aa(lp75
I5242
aI3108
aI7129
aI18426
aI510
aI209
aI1553
aI119
aI159
aI153
aa(lp76
I7734
aI1458
aI2530
aI18292
aI912
aI803
aI3489
aI871
aI383
aI136
aa(lp77
I1305
aI8380
aI2602
aI3105
aI871
aI573
aI355
aI18269
aI454
aI694
aa(lp78
I7153
aI1941
aI1027
aI4323
aI2307
aI489
aI444
aI18215
aI414
aI295
aa(lp79
I4267
aI2029
aI1518
aI1675
aI4192
aI952
aI198
aI18226
aI2471
aI1080
aa(lp80
I2420
aI7705
aI18290
aI2965
aI2952
aI798
aI807
aI265
aI269
aI137
aa(lp81
I1207
aI6966
aI18275
aI7754
aI690
aI333
aI271
aI551
aI340
aI221
aa(lp82
I4103
aI8011
aI1633
aI614
aI842
aI349
aI278
aI18232
aI1814
aI732
aa(lp83
I4595
aI7413
aI759
aI18301
aI276
aI3022
aI1166
aI434
aI298
aI344
aa(lp84
I5918
aI18469
aI7244
aI523
aI1468
aI1647
aI78
aI73
aI610
aI578
aa(lp85
I18453
aI8219
aI7270
aI553
aI574
aI598
aI390
aI161
aI236
aI154
aa(lp86
I691
aI6695
aI632
aI6473
aI2337
aI384
aI544
aI406
aI228
aI18218
aa(lp87
I1625
aI2559
aI1846
aI18485
aI400
aI376
aI565
aI5955
aI4418
aI379
aa(lp88
I1095
aI7379
aI8028
aI476
aI271
aI210
aI336
aI18215
aI349
aI249
aa(lp89
I1674
aI18534
aI3896
aI6083
aI287
aI636
aI2269
aI628
aI1446
aI1155
aa(lp90
I5250
aI7283
aI319
aI210
aI3031
aI255
aI1233
aI18232
aI103
aI692
aa(lp91
I7539
aI18588
aI911
aI6177
aI1828
aI629
aI292
aI214
aI224
aI206
aa(lp92
I5075
aI8304
aI1174
aI1106
aI489
aI694
aI917
aI241
aI18306
aI302
aa(lp93
I2416
aI18322
aI7395
aI1445
aI654
aI3160
aI1474
aI655
aI727
aI360
aa(lp94
I7175
aI750
aI9261
aI376
aI263
aI112
aI201
aI18219
aI94
aI157
aa(lp95
I5325
aI1157
aI7710
aI893
aI1632
aI283
aI454
aI18433
aI199
aI522
aa(lp96
I1125
aI3900
aI2449
aI18330
aI426
aI312
aI1917
aI187
aI7687
aI275
aa(lp97
I2877
aI735
aI6840
aI3838
aI18413
aI727
aI1389
aI404
aI1123
aI262
aa(lp98
I6038
aI18312
aI5501
aI885
aI3839
aI293
aI468
aI200
aI191
aI881
aa(lp99
I3032
aI1233
aI2369
aI1037
aI6265
aI2925
aI532
aI18637
aI247
aI331
aa(lp100
I8246
aI18419
aI7261
aI489
aI199
aI243
aI739
aI645
aI183
aI184
aa(lp101
I3092
aI1529
aI7237
aI143
aI18524
aI163
aI600
aI428
aI294
aI4598
aa(lp102
I7484
aI8480
aI176
aI605
aI168
aI368
aI461
aI18220
aI436
aI210
aa(lp103
I2899
aI6505
aI1443
aI867
aI1715
aI2825
aI924
aI18215
aI357
aI858
aa(lp104
I6747
aI1455
aI7224
aI18268
aI251
aI1621
aI237
aI151
aI449
aI205
aa(lp105
I1416
aI3198
aI6703
aI18421
aI1596
aI740
aI1758
aI535
aI1836
aI405
aa(lp106
I3235
aI3185
aI7372
aI18379
aI215
aI1859
aI1047
aI325
aI400
aI591
aa(lp107
I8394
aI288
aI1755
aI406
aI291
aI6481
aI230
aI219
aI18245
aI299
aa(lp108
I6582
aI992
aI7943
aI951
aI18322
aI183
aI576
aI454
aI406
aI199
aa(lp109
I4440
aI6704
aI1843
aI1772
aI830
aI1132
aI608
aI546
aI18215
aI518
aa(lp110
I5627
aI1440
aI6387
aI1199
aI758
aI513
aI992
aI18282
aI681
aI729
aa(lp111
I4811
aI5987
aI1345
aI705
aI1511
aI1838
aI820
aI18233
aI675
aI683
aa(lp112
I7483
aI756
aI515
aI736
aI399
aI319
aI7788
aI18336
aI124
aI152
aa(lp113
I1257
aI6533
aI2300
aI2134
aI4261
aI468
aI18352
aI209
aI305
aI789
aa(lp114
I2591
aI18511
aI2910
aI7141
aI1207
aI767
aI1478
aI1374
aI325
aI304
aa(lp115
I8159
aI6754
aI615
aI18246
aI422
aI660
aI523
aI276
aI335
aI618
aa(lp116
I4482
aI2403
aI913
aI930
aI2830
aI4379
aI924
aI18438
aI517
aI792
aa(lp117
I5992
aI3125
aI1404
aI18325
aI6535
aI424
aI234
aI202
aI148
aI219
aa(lp118
I2447
aI3283
aI2294
aI597
aI4437
aI1895
aI896
aI18249
aI570
aI1940
aa(lp119
I18627
aI8120
aI6246
aI1418
aI586
aI238
aI314
aI122
aI623
aI314
aa(lp120
I898
aI893
aI6736
aI18458
aI3684
aI2634
aI1034
aI1627
aI346
aI298
aa(lp121
I1080
aI8129
aI5221
aI18319
aI559
aI211
aI662
aI1656
aI602
aI169
aa(lp122
I4055
aI2485
aI1466
aI5693
aI2459
aI869
aI581
aI18216
aI607
aI177
aa(lp123
I2340
aI8033
aI983
aI149
aI5678
aI410
aI245
aI18216
aI265
aI289
aa(lp124
I8006
aI742
aI5746
aI18470
aI1233
aI172
aI1180
aI121
aI827
aI111
aa(lp125
I5316
aI7763
aI442
aI466
aI390
aI2013
aI1095
aI18259
aI738
aI126
aa(lp126
I1401
aI2465
aI2345
aI18432
aI1239
aI2027
aI6411
aI286
aI837
aI1165
aa(lp127
I7045
aI6092
aI18601
aI625
aI573
aI263
aI1457
aI656
aI1058
aI238
aa(lp128
I8064
aI18303
aI959
aI7636
aI477
aI234
aI121
aI354
aI247
aI213
aa(lp129
I4782
aI1747
aI539
aI18301
aI7240
aI2175
aI597
aI145
aI296
aI786
aa(lp130
I2399
aI2578
aI962
aI7838
aI1756
aI277
aI290
aI1464
aI18340
aI704
aa(lp131
I1797
aI4608
aI7324
aI18282
aI1843
aI264
aI154
aI490
aI1626
aI220
aa(lp132
I3621
aI3811
aI7348
aI18335
aI444
aI289
aI1304
aI526
aI463
aI467
aa(lp133
I18515
aI4092
aI2287
aI1471
aI7172
aI870
aI125
aI398
aI976
aI702
aa(lp134
I1733
aI1302
aI7295
aI3348
aI1779
aI156
aI360
aI1549
aI18219
aI867
aa(lp135
I1824
aI18781
aI2370
aI6650
aI958
aI541
aI947
aI2851
aI1387
aI299
aa(lp136
I3061
aI8103
aI18383
aI1282
aI2488
aI1024
aI225
aI1122
aI687
aI233
aa(lp137
I2370
aI18580
aI6068
aI7030
aI451
aI507
aI398
aI673
aI247
aI284
aa(lp138
I1071
aI7695
aI8202
aI18419
aI170
aI317
aI136
aI155
aI137
aI306
aa(lp139
I7223
aI18923
aI1923
aI2100
aI1658
aI495
aI1859
aI1068
aI697
aI662
aa(lp140
I7228
aI562
aI5768
aI18243
aI1294
aI382
aI1772
aI124
aI227
aI1008
aa(lp141
I3889
aI4088
aI7385
aI309
aI359
aI468
aI1181
aI18215
aI103
aI611
aa(lp142
I3996
aI1889
aI182
aI7104
aI3428
aI189
aI515
aI18222
aI525
aI558
aa(lp143
I2589
aI18450
aI2207
aI6206
aI1263
aI1411
aI1244
aI633
aI1583
aI1022
aa(lp144
I6592
aI1237
aI2076
aI1688
aI1955
aI1328
aI1188
aI18215
aI640
aI1689
aa(lp145
I856
aI8007
aI1971
aI1595
aI1815
aI928
aI1006
aI18478
aI985
aI967
aa(lp146
I1503
aI4169
aI1809
aI551
aI6713
aI1935
aI842
aI18226
aI579
aI281
aa(lp147
I8671
aI1718
aI6825
aI18244
aI393
aI73
aI122
aI229
aI210
aI123
aa(lp148
I7403
aI1146
aI260
aI6717
aI916
aI18380
aI538
aI350
aI663
aI235
aa(lp149
I2343
aI5733
aI6093
aI18616
aI593
aI539
aI765
aI429
aI750
aI747
aa(lp150
I673
aI4700
aI7319
aI3443
aI669
aI129
aI514
aI18215
aI384
aI562
aa(lp151
I7985
aI1537
aI3753
aI1182
aI471
aI2328
aI394
aI18295
aI332
aI331
aa(lp152
I1396
aI6918
aI3282
aI18318
aI2218
aI2715
aI412
aI95
aI301
aI953
aa(lp153
I7703
aI18293
aI376
aI7657
aI287
aI1112
aI581
aI224
aI267
aI108
aa(lp154
I7951
aI18338
aI6467
aI961
aI312
aI163
aI901
aI1181
aI180
aI154
aa(lp155
I7375
aI2858
aI2351
aI169
aI143
aI2557
aI2421
aI18253
aI236
aI245
aa(lp156
I7484
aI1509
aI7644
aI18272
aI37
aI190
aI398
aI319
aI96
aI659
aa(lp157
I1927
aI2493
aI6340
aI2553
aI18396
aI832
aI873
aI423
aI1259
aI1512
aa(lp158
I5313
aI1700
aI4371
aI2254
aI3096
aI18344
aI459
aI523
aI276
aI272
aa(lp159
I3974
aI1396
aI2264
aI18319
aI6931
aI1266
aI802
aI263
aI900
aI493
aa(lp160
I3815
aI1031
aI551
aI1994
aI7815
aI1225
aI243
aI18492
aI1133
aI309
aa(lp161
I3832
aI1478
aI1897
aI2260
aI685
aI960
aI5766
aI747
aI18276
aI707
aa(lp162
I6319
aI2292
aI5347
aI755
aI348
aI2011
aI765
aI215
aI341
aI18215
aa(lp163
I6738
aI1550
aI1252
aI972
aI377
aI1337
aI2167
aI3504
aI18215
aI496
aa(lp164
I18397
aI5473
aI8906
aI304
aI148
aI236
aI619
aI2050
aI279
aI196
aa(lp165
I2950
aI4755
aI6918
aI1460
aI602
aI458
aI351
aI18255
aI569
aI290
aa(lp166
I1363
aI8337
aI5599
aI934
aI468
aI266
aI248
aI18256
aI1002
aI135
aa(lp167
I2620
aI8397
aI959
aI18313
aI3803
aI379
aI248
aI105
aI834
aI950
aa(lp168
I4513
aI2342
aI2452
aI2109
aI2028
aI577
aI783
aI18337
aI2249
aI1218
aa(lp169
I1811
aI18316
aI4641
aI6065
aI876
aI1136
aI1265
aI974
aI578
aI946
aa(lp170
I1985
aI6939
aI2794
aI848
aI1019
aI2245
aI1431
aI18351
aI581
aI415
aa(lp171
I2767
aI5313
aI6986
aI1050
aI431
aI260
aI240
aI18215
aI501
aI845
aa(lp172
I1372
aI18686
aI7017
aI7098
aI578
aI422
aI180
aI116
aI154
aI985
aa(lp173
I8336
aI7808
aI1010
aI18252
aI374
aI253
aI191
aI148
aI113
aI123
aa(lp174
I7106
aI6761
aI1234
aI18335
aI829
aI369
aI345
aI671
aI625
aI333
aa(lp175
I9033
aI1643
aI6407
aI183
aI290
aI328
aI152
aI18222
aI136
aI214
aa(lp176
I7266
aI18375
aI5773
aI789
aI1815
aI991
aI332
aI482
aI332
aI453
aa(lp177
I4701
aI18457
aI775
aI2073
aI7811
aI434
aI1148
aI507
aI280
aI422
aa(lp178
I2270
aI18332
aI6769
aI1072
aI708
aI1886
aI1207
aI3741
aI239
aI384
aa(lp179
I7416
aI2656
aI3719
aI987
aI1579
aI18242
aI638
aI365
aI417
aI589
aa(lp180
I1176
aI2083
aI1675
aI7674
aI737
aI18250
aI3795
aI460
aI263
aI495
aa(lp181
I1388
aI6964
aI1470
aI687
aI3381
aI1381
aI2264
aI18215
aI450
aI408
aa(lp182
I1865
aI4274
aI18553
aI6483
aI456
aI629
aI1351
aI1249
aI1128
aI620
aa(lp183
I1668
aI6064
aI666
aI6834
aI274
aI1322
aI980
aI350
aI235
aI18215
aa(lp184
I7194
aI18558
aI6581
aI754
aI324
aI1119
aI109
aI256
aI787
aI926
aa(lp185
I1640
aI6902
aI1341
aI218
aI7261
aI324
aI135
aI18220
aI257
aI310
aa(lp186
I8220
aI18268
aI6972
aI433
aI325
aI215
aI387
aI1124
aI287
aI377
aa(lp187
I1300
aI3296
aI7332
aI18249
aI4034
aI816
aI626
aI568
aI206
aI181
aa(lp188
I4439
aI6379
aI1369
aI18235
aI2688
aI2027
aI454
aI375
aI321
aI321
aa(lp189
I1328
aI7028
aI2561
aI18488
aI1115
aI3656
aI1120
aI363
aI664
aI285
aa(lp190
I2546
aI2599
aI2985
aI18330
aI2629
aI2416
aI1061
aI1344
aI1483
aI1215
aa(lp191
I2816
aI6382
aI2311
aI18376
aI544
aI2241
aI1408
aI747
aI1034
aI749
aa(lp192
I1793
aI18533
aI3418
aI1824
aI961
aI605
aI3039
aI4515
aI1595
aI325
aa(lp193
I8926
aI1565
aI6610
aI18354
aI177
aI106
aI167
aI390
aI113
aI200
aa(lp194
I5619
aI620
aI6149
aI644
aI2083
aI1829
aI526
aI431
aI18271
aI436
aa(lp195
I1183
aI828
aI4143
aI1363
aI2648
aI1089
aI6085
aI18248
aI584
aI437
aa(lp196
I5748
aI2704
aI7793
aI18232
aI169
aI222
aI202
aI135
aI776
aI627
aa(lp197
I6677
aI6256
aI1147
aI1396
aI654
aI937
aI258
aI18419
aI349
aI515
aa(lp198
I6241
aI7888
aI523
aI864
aI522
aI900
aI316
aI18232
aI295
aI827
aa(lp199
I8456
aI1546
aI6543
aI834
aI335
aI270
aI155
aI18222
aI142
aI105
aa(lp200
I4121
aI3532
aI7549
aI18312
aI752
aI194
aI843
aI512
aI481
aI312
aa(lp201
I9071
aI5185
aI445
aI384
aI1178
aI1064
aI437
aI18215
aI280
aI349
aa(lp202
I8291
aI7004
aI1396
aI18271
aI257
aI136
aI112
aI325
aI589
aI227
aa(lp203
I2811
aI3325
aI7912
aI625
aI327
aI345
aI651
aI18215
aI1607
aI790
aa(lp204
I3883
aI4711
aI7215
aI386
aI18333
aI271
aI1000
aI260
aI383
aI166
aa(lp205
I7704
aI505
aI716
aI275
aI7765
aI580
aI351
aI18215
aI135
aI362
aa(lp206
I5188
aI1988
aI1882
aI18387
aI7343
aI857
aI324
aI84
aI323
aI232
aa(lp207
I2006
aI1814
aI3024
aI18399
aI435
aI2054
aI6802
aI560
aI943
aI571
aa(lp208
I6836
aI18295
aI6192
aI690
aI325
aI1002
aI652
aI759
aI1123
aI734
aa(lp209
I4168
aI4688
aI7077
aI1328
aI442
aI210
aI201
aI18215
aI85
aI194
aa(lp210
I5171
aI18525
aI4581
aI1825
aI186
aI497
aI3329
aI909
aI863
aI722
aa(lp211
I427
aI1543
aI6319
aI639
aI397
aI8071
aI203
aI18255
aI485
aI269
aa(lp212
I1076
aI6753
aI8408
aI244
aI362
aI363
aI362
aI18215
aI479
aI346
aa(lp213
I7056
aI851
aI7833
aI629
aI264
aI293
aI673
aI18267
aI457
aI285
aa(lp214
I628
aI8040
aI6605
aI1419
aI18561
aI405
aI360
aI278
aI184
aI128
aa(lp215
I4236
aI737
aI18308
aI8163
aI3960
aI484
aI199
aI114
aI143
aI264
aa(lp216
I3396
aI18494
aI5399
aI1516
aI577
aI198
aI1084
aI1477
aI3285
aI1182
aa(lp217
I1471
aI18306
aI6483
aI7503
aI551
aI1582
aI217
aI220
aI161
aI114
aa(lp218
I1192
aI7505
aI8403
aI99
aI251
aI174
aI278
aI18232
aI203
aI271
aa(lp219
I2353
aI3340
aI5211
aI3201
aI3108
aI261
aI209
aI18215
aI164
aI546
aa(lp220
I3913
aI221
aI2848
aI18299
aI452
aI6700
aI3280
aI199
aI451
aI245
aa(lp221
I3887
aI4875
aI3236
aI2042
aI1780
aI406
aI637
aI18227
aI1114
aI404
aa(lp222
I6343
aI1807
aI6634
aI1678
aI18468
aI356
aI180
aI689
aI164
aI289
aa(lp223
I1428
aI1108
aI8090
aI4298
aI1693
aI536
aI269
aI18272
aI642
aI272
aa(lp224
I7534
aI18653
aI6493
aI841
aI800
aI193
aI322
aI425
aI918
aI429
aa(lp225
I7961
aI909
aI7618
aI18224
aI333
aI199
aI830
aI279
aI121
aI134
aa(lp226
I5725
aI1651
aI4033
aI490
aI18505
aI470
aI3325
aI381
aI1628
aI400
aa(lp227
I632
aI18305
aI2048
aI447
aI6836
aI629
aI6995
aI307
aI240
aI169
aa(lp228
I7139
aI941
aI4743
aI18290
aI1405
aI798
aI1357
aI921
aI570
aI444
aa(lp229
I3604
aI711
aI2787
aI1684
aI391
aI18215
aI6725
aI254
aI1298
aI939
aa(lp230
I2265
aI18349
aI3689
aI5719
aI2446
aI541
aI1511
aI1270
aI454
aI364
aa(lp231
I4001
aI3957
aI1337
aI18305
aI247
aI214
aI193
aI439
aI7854
aI61
aa(lp232
I6591
aI2172
aI6344
aI359
aI178
aI471
aI421
aI18217
aI1467
aI388
aa(lp233
I6072
aI4350
aI4127
aI1554
aI485
aI737
aI379
aI18215
aI234
aI455
aa(lp234
I7725
aI6596
aI1560
aI18260
aI706
aI322
aI403
aI449
aI333
aI254
aa(lp235
I8028
aI18248
aI1455
aI468
aI257
aI526
aI6918
aI140
aI117
aI451
aa(lp236
I6768
aI18265
aI930
aI4191
aI3772
aI637
aI606
aI280
aI234
aI925
aa(lp237
I461
aI5883
aI8845
aI1530
aI18424
aI125
aI290
aI483
aI262
aI305
aa(lp238
I1986
aI7202
aI3997
aI2507
aI1276
aI602
aI409
aI18215
aI294
aI120
aa(lp239
I1606
aI6195
aI7320
aI18263
aI1730
aI193
aI171
aI158
aI484
aI488
aa(lp240
I3522
aI2074
aI8407
aI18405
aI2150
aI1244
aI364
aI195
aI155
aI92
aa(lp241
I7793
aI932
aI6314
aI801
aI767
aI374
aI367
aI18218
aI295
aI747
aa(lp242
I18561
aI5284
aI2827
aI1509
aI3108
aI668
aI1604
aI1935
aI799
aI313
aa(lp243
I1181
aI5711
aI5980
aI377
aI1905
aI1376
aI499
aI18215
aI625
aI739
aa(lp244
I9021
aI4736
aI932
aI213
aI1630
aI270
aI658
aI187
aI18235
aI726
aa(lp245
I5379
aI18319
aI6824
aI784
aI368
aI1720
aI998
aI676
aI670
aI870
aa(lp246
I2603
aI7435
aI2018
aI18436
aI2521
aI438
aI1762
aI695
aI476
aI224
aa(lp247
I1138
aI8164
aI18328
aI6687
aI632
aI488
aI342
aI376
aI305
aI148
aa(lp248
I7205
aI18336
aI8406
aI405
aI316
aI671
aI385
aI311
aI370
aI203
aa(lp249
I6739
aI18377
aI5655
aI2611
aI256
aI119
aI947
aI1216
aI549
aI139
aa(lp250
I3270
aI1830
aI4632
aI3168
aI395
aI1038
aI954
aI18381
aI2006
aI934
aa(lp251
I7380
aI18345
aI7806
aI523
aI481
aI680
aI138
aI242
aI907
aI106
aa(lp252
I7360
aI183
aI7867
aI18277
aI878
aI719
aI692
aI310
aI179
aI143
aa(lp253
I7465
aI6594
aI1723
aI18453
aI513
aI918
aI255
aI255
aI110
aI322
aa(lp254
I906
aI7426
aI7442
aI392
aI367
aI508
aI1069
aI18241
aI96
aI161
aa(lp255
I7169
aI487
aI7724
aI18293
aI314
aI364
aI290
aI1077
aI514
aI376
aa(lp256
I5981
aI1704
aI2557
aI2117
aI999
aI1151
aI18432
aI2852
aI436
aI379
aa(lp257
I1212
aI5646
aI1960
aI18431
aI415
aI6647
aI788
aI357
aI880
aI272
aa(lp258
I2008
aI2564
aI6569
aI2030
aI811
aI2478
aI18251
aI787
aI429
aI681
aa(lp259
I505
aI646
aI5050
aI365
aI2034
aI802
aI7913
aI18223
aI885
aI185
aa(lp260
I977
aI4614
aI7056
aI3723
aI1008
aI263
aI222
aI109
aI18265
aI371
aa(lp261
I7553
aI1668
aI2639
aI1099
aI18349
aI672
aI2204
aI310
aI1774
aI340
aa(lp262
I18724
aI7104
aI675
aI593
aI1947
aI374
aI5892
aI566
aI220
aI513
aa(lp263
I7483
aI3413
aI3984
aI970
aI379
aI1171
aI429
aI18228
aI392
aI159
aa(lp264
I8311
aI18397
aI495
aI605
aI1001
aI6762
aI515
aI95
aI108
aI319
aa(lp265
I18405
aI2698
aI6154
aI1266
aI6920
aI420
aI351
aI130
aI129
aI135
aa(lp266
I18983
aI1224
aI6227
aI1000
aI1562
aI1263
aI5201
aI423
aI422
aI303
aa(lp267
I7452
aI631
aI2648
aI18272
aI762
aI5805
aI219
aI165
aI207
aI447
aa(lp268
I7629
aI1238
aI7202
aI169
aI367
aI516
aI821
aI18266
aI243
aI157
aa(lp269
I7244
aI18544
aI1314
aI6958
aI248
aI235
aI168
aI949
aI667
aI281
aa(lp270
I18741
aI5579
aI7837
aI1763
aI1370
aI376
aI231
aI184
aI279
aI248
aa(lp271
I8162
aI7472
aI1127
aI18272
aI618
aI209
aI301
aI131
aI113
aI203
aa(lp272
I914
aI7569
aI8096
aI18389
aI570
aI96
aI156
aI163
aI254
aI401
aa(lp273
I3032
aI9356
aI1660
aI150
aI2502
aI170
aI300
aI18304
aI162
aI972
aa(lp274
I4857
aI3410
aI4140
aI4178
aI552
aI122
aI82
aI647
aI18241
aI379
aa(lp275
I18584
aI931
aI642
aI7297
aI201
aI6577
aI447
aI342
aI194
aI1393
aa(lp276
I1213
aI4393
aI3833
aI18273
aI7966
aI320
aI190
aI153
aI98
aI169
aa(lp277
I571
aI7155
aI9102
aI18318
aI197
aI220
aI80
aI682
aI99
aI184
aa(lp278
I1437
aI8667
aI6811
aI18300
aI286
aI151
aI153
aI366
aI154
aI283
aa.