(lp0
(lp1
I313
aI548
aI151
aI5297
aI336
aI6
aI126
aI11
aI11
aI5
aa(lp2
I689
aI181
aI374
aI5303
aI141
aI38
aI43
aI13
aI3
aI19
aa(lp3
I380
aI489
aI511
aI5340
aI34
aI11
aI13
aI1
aI16
aI9
aa(lp4
I175
aI5354
aI396
aI332
aI161
aI118
aI25
aI19
aI19
aI205
aa(lp5
I618
aI146
aI164
aI5324
aI61
aI389
aI62
aI21
aI7
aI12
aa(lp6
I381
aI290
aI109
aI281
aI112
aI38
aI5346
aI22
aI191
aI34
aa(lp7
I85
aI313
aI500
aI489
aI5339
aI14
aI24
aI24
aI6
aI10
aa(lp8
I509
aI5363
aI332
aI313
aI228
aI8
aI20
aI24
aI2
aI5
aa(lp9
I376
aI5372
aI283
aI51
aI71
aI207
aI292
aI3
aI135
aI14
aa(lp10
I357
aI5368
aI257
aI288
aI72
aI9
aI392
aI40
aI20
aI1
aa(lp11
I206
aI603
aI526
aI5343
aI9
aI12
aI11
aI32
aI1
aI61
aa(lp12
I339
aI377
aI355
aI13
aI5332
aI98
aI201
aI49
aI1
aI39
aa(lp13
I663
aI152
aI5315
aI370
aI6
aI16
aI11
aI1
aI261
aI9
aa(lp14
I510
aI297
aI5380
aI402
aI76
aI54
aI2
aI38
aI22
aI23
aa(lp15
I287
aI356
aI570
aI113
aI62
aI33
aI10
aI5318
aI15
aI40
aa(lp16
I5408
aI248
aI429
aI456
aI89
aI30
aI29
aI17
aI84
aI14
aa(lp17
I567
aI5304
aI429
aI268
aI40
aI149
aI23
aI1
aI16
aI7
aa(lp18
I429
aI181
aI5349
aI338
aI25
aI92
aI1
aI387
aI1
aI1
aa(lp19
I481
aI307
aI5315
aI469
aI16
aI177
aI1
aI27
aI1
aI10
aa(lp20
I254
aI206
aI5309
aI200
aI619
aI7
aI10
aI1
aI187
aI11
aa(lp21
I567
aI5327
aI208
aI261
aI2
aI52
aI315
aI42
aI29
aI1
aa(lp22
I621
aI5331
aI372
aI68
aI107
aI37
aI6
aI37
aI86
aI139
aa(lp23
I548
aI5336
aI313
aI373
aI14
aI1
aI140
aI25
aI49
aI5
aa(lp24
I335
aI5363
aI184
aI380
aI145
aI338
aI34
aI1
aI8
aI16
aa(lp25
I676
aI199
aI198
aI5307
aI97
aI120
aI2
aI12
aI181
aI12
aa(lp26
I5316
aI501
aI197
aI399
aI42
aI5
aI1
aI11
aI325
aI7
aa(lp27
I5349
aI297
aI512
aI219
aI256
aI24
aI60
aI7
aI43
aI37
aa(lp28
I5362
aI413
aI262
aI116
aI343
aI13
aI38
aI121
aI89
aI47
aa(lp29
I5326
aI257
aI42
aI381
aI258
aI433
aI81
aI3
aI20
aI3
aa(lp30
I692
aI98
aI209
aI379
aI52
aI13
aI6
aI35
aI5305
aI15
aa(lp31
I101
aI5328
aI416
aI281
aI163
aI133
aI15
aI24
aI145
aI198
aa(lp32
I515
aI206
aI384
aI5346
aI76
aI85
aI10
aI22
aI101
aI59
aa(lp33
I203
aI5345
aI271
aI225
aI171
aI376
aI31
aI21
aI65
aI96
aa(lp34
I367
aI474
aI509
aI5349
aI21
aI18
aI1
aI39
aI12
aI14
aa(lp35
I415
aI221
aI639
aI5312
aI32
aI68
aI14
aI77
aI5
aI21
aa(lp36
I634
aI142
aI196
aI5322
aI120
aI356
aI1
aI28
aI1
aI4
aa(lp37
I130
aI417
aI5357
aI206
aI166
aI60
aI38
aI14
aI36
aI380
aa(lp38
I463
aI464
aI5348
aI408
aI92
aI13
aI2
aI11
aI2
aI1
aa(lp39
I666
aI314
aI147
aI5328
aI129
aI81
aI114
aI6
aI8
aI11
aa(lp40
I493
aI298
aI539
aI5316
aI58
aI32
aI47
aI11
aI2
aI8
aa(lp41
I522
aI5353
aI329
aI39
aI130
aI63
aI194
aI104
aI34
aI36
aa(lp42
I465
aI366
aI222
aI5310
aI238
aI10
aI4
aI89
aI5
aI95
aa(lp43
I303
aI340
aI50
aI239
aI516
aI30
aI4
aI5302
aI11
aI9
aa(lp44
I511
aI5329
aI307
aI217
aI157
aI198
aI63
aI4
aI14
aI4
aa(lp45
I415
aI474
aI402
aI5316
aI142
aI16
aI11
aI12
aI1
aI15
aa(lp46
I507
aI275
aI80
aI330
aI5313
aI247
aI17
aI11
aI13
aI11
aa(lp47
I5340
aI583
aI395
aI165
aI41
aI236
aI35
aI1
aI6
aI2
aa(lp48
I139
aI399
aI339
aI43
aI410
aI11
aI1
aI5310
aI10
aI142
aa(lp49
I466
aI5373
aI102
aI226
aI35
aI405
aI50
aI99
aI23
aI25
aa(lp50
I202
aI618
aI215
aI5368
aI219
aI122
aI37
aI9
aI11
aI3
aa(lp51
I63
aI221
aI545
aI5339
aI193
aI103
aI48
aI13
aI237
aI42
aa(lp52
I5331
aI336
aI123
aI48
aI74
aI377
aI393
aI104
aI17
aI1
aa(lp53
I550
aI267
aI467
aI51
aI100
aI22
aI13
aI14
aI5312
aI8
aa(lp54
I332
aI5350
aI321
aI80
aI270
aI413
aI23
aI2
aI11
aI2
aa(lp55
I230
aI367
aI218
aI289
aI5364
aI24
aI51
aI219
aI16
aI26
aa(lp56
I251
aI182
aI490
aI302
aI5357
aI113
aI14
aI11
aI24
aI60
aa(lp57
I162
aI144
aI377
aI239
aI223
aI99
aI232
aI12
aI2
aI5314
aa(lp58
I162
aI433
aI515
aI5324
aI318
aI8
aI6
aI13
aI14
aI11
aa(lp59
I148
aI5371
aI423
aI396
aI77
aI25
aI306
aI12
aI17
aI29
aa(lp60
I383
aI441
aI449
aI5355
aI73
aI63
aI12
aI10
aI11
aI7
aa(lp61
I599
aI5333
aI478
aI71
aI177
aI99
aI1
aI11
aI33
aI2
aa(lp62
I441
aI289
aI407
aI5341
aI280
aI1
aI1
aI1
aI34
aI9
aa(lp63
I155
aI5336
aI377
aI373
aI288
aI101
aI17
aI8
aI13
aI136
aa(lp64
I431
aI305
aI260
aI5321
aI353
aI63
aI15
aI19
aI16
aI21
aa(lp65
I448
aI5387
aI373
aI235
aI149
aI57
aI41
aI70
aI24
aI20
aa(lp66
I426
aI5340
aI414
aI42
aI336
aI22
aI15
aI25
aI55
aI129
aa(lp67
I509
aI5334
aI75
aI317
aI218
aI278
aI42
aI6
aI1
aI24
aa(lp68
I335
aI425
aI328
aI69
aI149
aI175
aI6
aI5297
aI1
aI19
aa(lp69
I361
aI5394
aI215
aI475
aI120
aI29
aI15
aI68
aI56
aI71
aa(lp70
I343
aI294
aI522
aI5346
aI95
aI66
aI8
aI127
aI1
aI2
aa(lp71
I558
aI252
aI5316
aI134
aI410
aI12
aI31
aI80
aI1
aI10
aa(lp72
I254
aI383
aI290
aI5332
aI155
aI217
aI1
aI64
aI20
aI88
aa(lp73
I5356
aI609
aI241
aI67
aI382
aI45
aI46
aI39
aI18
aI1
aa(lp74
I138
aI5338
aI300
aI75
aI507
aI265
aI101
aI45
aI22
aI13
aa(lp75
I5342
aI188
aI638
aI339
aI146
aI21
aI26
aI1
aI16
aI87
aa(lp76
I482
aI5346
aI406
aI81
aI123
aI77
aI196
aI34
aI3
aI56
aa(lp77
I407
aI5314
aI719
aI148
aI26
aI2
aI103
aI54
aI10
aI21
aa(lp78
I439
aI279
aI5330
aI392
aI135
aI101
aI27
aI43
aI49
aI9
aa(lp79
I117
aI177
aI571
aI465
aI5332
aI76
aI23
aI13
aI9
aI21
aa(lp80
I521
aI5347
aI453
aI109
aI40
aI130
aI62
aI27
aI55
aI60
aa(lp81
I163
aI5358
aI575
aI318
aI35
aI329
aI8
aI15
aI2
aI1
aa(lp82
I378
aI219
aI256
aI547
aI5336
aI14
aI2
aI37
aI11
aI4
aa(lp83
I458
aI247
aI130
aI5357
aI50
aI25
aI396
aI9
aI111
aI21
aa(lp84
I423
aI599
aI359
aI5320
aI11
aI5
aI34
aI33
aI19
aI1
aa(lp85
I5351
aI493
aI379
aI321
aI109
aI49
aI11
aI57
aI28
aI6
aa(lp86
I378
aI381
aI5329
aI539
aI21
aI55
aI30
aI41
aI9
aI21
aa(lp87
I438
aI433
aI437
aI5337
aI41
aI12
aI39
aI14
aI21
aI32
aa(lp88
I193
aI481
aI325
aI110
aI5336
aI162
aI61
aI8
aI123
aI5
aa(lp89
I405
aI5383
aI440
aI304
aI132
aI58
aI20
aI17
aI24
aI21
aa(lp90
I503
aI332
aI299
aI5304
aI334
aI6
aI5
aI1
aI5
aI15
aa(lp91
I593
aI5353
aI340
aI179
aI19
aI62
aI213
aI1
aI17
aI27
aa(lp92
I483
aI5355
aI607
aI113
aI157
aI14
aI43
aI11
aI8
aI13
aa(lp93
I541
aI235
aI60
aI5348
aI44
aI70
aI14
aI455
aI20
aI17
aa(lp94
I603
aI213
aI351
aI88
aI114
aI5312
aI8
aI11
aI3
aI101
aa(lp95
I184
aI5344
aI635
aI326
aI30
aI23
aI239
aI5
aI3
aI15
aa(lp96
I540
aI5351
aI277
aI380
aI160
aI20
aI36
aI14
aI23
aI3
aa(lp97
I179
aI5336
aI228
aI123
aI80
aI189
aI298
aI1
aI355
aI15
aa(lp98
I322
aI5342
aI81
aI446
aI505
aI21
aI14
aI4
aI29
aI40
aa(lp99
I442
aI318
aI5360
aI271
aI88
aI70
aI72
aI80
aI15
aI88
aa(lp100
I93
aI510
aI447
aI5323
aI36
aI24
aI349
aI9
aI11
aI2
aa(lp101
I685
aI298
aI87
aI5336
aI323
aI8
aI12
aI37
aI8
aI10
aa(lp102
I96
aI174
aI175
aI163
aI422
aI178
aI5304
aI211
aI9
aI72
aa(lp103
I460
aI314
aI5346
aI203
aI231
aI30
aI54
aI63
aI12
aI91
aa(lp104
I670
aI5313
aI249
aI302
aI131
aI22
aI10
aI78
aI12
aI17
aa(lp105
I146
aI408
aI5352
aI99
aI110
aI109
aI117
aI14
aI141
aI308
aa(lp106
I501
aI5365
aI313
aI256
aI237
aI75
aI5
aI12
aI18
aI22
aa(lp107
I431
aI5309
aI375
aI230
aI6
aI68
aI380
aI1
aI3
aI1
aa(lp108
I146
aI157
aI329
aI231
aI5339
aI21
aI78
aI397
aI1
aI105
aa(lp109
I5365
aI139
aI306
aI526
aI25
aI51
aI144
aI222
aI14
aI12
aa(lp110
I395
aI192
aI473
aI5342
aI24
aI41
aI226
aI66
aI22
aI23
aa(lp111
I565
aI381
aI299
aI108
aI5347
aI9
aI64
aI14
aI9
aI8
aa(lp112
I410
aI89
aI322
aI452
aI94
aI61
aI7
aI34
aI5330
aI5
aa(lp113
I483
aI295
aI448
aI51
aI5333
aI88
aI19
aI19
aI38
aI30
aa(lp114
I338
aI296
aI292
aI5355
aI138
aI90
aI150
aI93
aI41
aI11
aa(lp115
I173
aI475
aI5328
aI326
aI379
aI11
aI1
aI47
aI8
aI56
aa(lp116
I532
aI5306
aI444
aI102
aI220
aI38
aI37
aI22
aI93
aI10
aa(lp117
I5348
aI519
aI319
aI327
aI145
aI18
aI65
aI1
aI10
aI52
aa(lp118
I503
aI214
aI5341
aI284
aI263
aI67
aI25
aI82
aI12
aI13
aa(lp119
I512
aI230
aI5323
aI323
aI337
aI5
aI31
aI24
aI7
aI12
aa(lp120
I348
aI5347
aI384
aI450
aI152
aI5
aI25
aI15
aI47
aI31
aa(lp121
I184
aI436
aI5350
aI418
aI21
aI372
aI1
aI10
aI1
aI11
aa(lp122
I5326
aI358
aI398
aI484
aI157
aI21
aI41
aI1
aI16
aI2
aa(lp123
I355
aI271
aI448
aI5324
aI199
aI2
aI18
aI43
aI9
aI135
aa(lp124
I176
aI400
aI504
aI5324
aI268
aI2
aI10
aI28
aI15
aI77
aa(lp125
I239
aI375
aI144
aI5324
aI522
aI1
aI17
aI74
aI106
aI2
aa(lp126
I5354
aI216
aI444
aI534
aI25
aI38
aI45
aI91
aI22
aI35
aa(lp127
I564
aI5352
aI274
aI332
aI29
aI124
aI56
aI62
aI6
aI5
aa(lp128
I500
aI5331
aI127
aI93
aI20
aI117
aI209
aI282
aI123
aI2
aa(lp129
I486
aI332
aI5302
aI235
aI18
aI10
aI18
aI5
aI345
aI53
aa(lp130
I462
aI359
aI86
aI5320
aI24
aI16
aI501
aI7
aI24
aI5
aa(lp131
I425
aI270
aI5350
aI291
aI78
aI37
aI1
aI312
aI19
aI21
aa(lp132
I280
aI532
aI261
aI5333
aI350
aI12
aI8
aI3
aI17
aI8
aa(lp133
I471
aI5382
aI530
aI23
aI82
aI84
aI29
aI150
aI39
aI14
aa(lp134
I333
aI54
aI536
aI5362
aI19
aI172
aI66
aI221
aI27
aI14
aa(lp135
I644
aI5374
aI392
aI210
aI29
aI25
aI49
aI27
aI34
aI20
aa(lp136
I402
aI225
aI204
aI5361
aI118
aI31
aI19
aI8
aI33
aI403
aa(lp137
I5355
aI494
aI287
aI350
aI46
aI152
aI27
aI30
aI52
aI11
aa(lp138
I631
aI214
aI5314
aI391
aI111
aI91
aI14
aI4
aI23
aI11
aa(lp139
I230
aI5338
aI415
aI248
aI79
aI187
aI114
aI27
aI34
aI132
aa(lp140
I394
aI479
aI110
aI5330
aI12
aI402
aI2
aI4
aI65
aI6
aa(lp141
I5331
aI194
aI205
aI478
aI8
aI388
aI170
aI17
aI12
aI1
aa(lp142
I408
aI116
aI209
aI343
aI12
aI287
aI23
aI5312
aI93
aI1
aa(lp143
I559
aI5341
aI507
aI258
aI67
aI17
aI19
aI17
aI18
aI1
aa(lp144
I462
aI41
aI67
aI343
aI97
aI23
aI41
aI400
aI5327
aI3
aa(lp145
I5391
aI562
aI344
aI248
aI53
aI1
aI140
aI32
aI15
aI18
aa(lp146
I370
aI287
aI151
aI5340
aI21
aI264
aI218
aI57
aI43
aI53
aa(lp147
I254
aI397
aI5306
aI366
aI392
aI38
aI13
aI28
aI4
aI6
aa(lp148
I378
aI226
aI5345
aI133
aI68
aI126
aI22
aI25
aI455
aI26
aa(lp149
I354
aI29
aI543
aI394
aI5319
aI29
aI19
aI4
aI9
aI104
aa(lp150
I599
aI149
aI367
aI5297
aI325
aI1
aI42
aI11
aI9
aI4
aa(lp151
I349
aI404
aI351
aI5363
aI221
aI29
aI40
aI17
aI2
aI28
aa(lp152
I5343
aI537
aI343
aI69
aI139
aI250
aI35
aI28
aI29
aI31
aa(lp153
I156
aI641
aI83
aI123
aI5319
aI398
aI29
aI11
aI19
aI25
aa(lp154
I5319
aI457
aI397
aI157
aI2
aI407
aI47
aI1
aI7
aI10
aa(lp155
I230
aI556
aI175
aI329
aI5315
aI6
aI89
aI10
aI93
aI1
aa(lp156
I220
aI586
aI105
aI5340
aI21
aI320
aI6
aI180
aI15
aI11
aa(lp157
I419
aI326
aI323
aI5328
aI298
aI1
aI27
aI52
aI16
aI14
aa(lp158
I243
aI360
aI396
aI5327
aI161
aI220
aI24
aI13
aI4
aI56
aa(lp159
I116
aI349
aI325
aI5318
aI413
aI193
aI21
aI18
aI19
aI32
aa(lp160
I474
aI295
aI5349
aI267
aI297
aI20
aI14
aI44
aI25
aI19
aa(lp161
I357
aI5361
aI345
aI136
aI256
aI18
aI11
aI269
aI28
aI23
aa(lp162
I422
aI94
aI399
aI5314
aI302
aI97
aI87
aI12
aI24
aI53
aa(lp163
I5366
aI376
aI413
aI256
aI113
aI135
aI70
aI19
aI26
aI30
aa(lp164
I369
aI754
aI91
aI5347
aI7
aI57
aI35
aI66
aI73
aI5
aa(lp165
I84
aI146
aI717
aI371
aI5336
aI45
aI46
aI31
aI1
aI27
aa(lp166
I531
aI5336
aI437
aI171
aI200
aI8
aI80
aI10
aI11
aI20
aa(lp167
I5323
aI231
aI479
aI80
aI450
aI9
aI24
aI18
aI172
aI18
aa(lp168
I395
aI336
aI5368
aI354
aI255
aI16
aI49
aI10
aI13
aI8
aa(lp169
I308
aI5354
aI419
aI184
aI332
aI38
aI127
aI24
aI9
aI9
aa(lp170
I469
aI163
aI5326
aI361
aI63
aI169
aI179
aI20
aI19
aI35
aa(lp171
I330
aI5319
aI529
aI270
aI309
aI19
aI2
aI17
aI8
aI1
aa(lp172
I186
aI5351
aI182
aI336
aI224
aI27
aI454
aI23
aI11
aI10
aa(lp173
I151
aI5323
aI511
aI101
aI38
aI35
aI159
aI80
aI378
aI28
aa(lp174
I398
aI488
aI5352
aI148
aI96
aI46
aI10
aI20
aI16
aI230
aa(lp175
I409
aI489
aI180
aI5307
aI145
aI174
aI15
aI5
aI78
aI2
aa(lp176
I422
aI452
aI172
aI5314
aI64
aI18
aI355
aI1
aI1
aI5
aa(lp177
I421
aI369
aI258
aI5330
aI292
aI30
aI23
aI52
aI28
aI1
aa(lp178
I281
aI384
aI458
aI5389
aI51
aI107
aI16
aI12
aI83
aI23
aa(lp179
I561
aI125
aI5365
aI81
aI339
aI39
aI129
aI24
aI102
aI39
aa(lp180
I473
aI311
aI424
aI105
aI39
aI1
aI6
aI111
aI5312
aI22
aa(lp181
I560
aI5362
aI184
aI436
aI84
aI21
aI24
aI12
aI69
aI52
aa(lp182
I245
aI616
aI233
aI137
aI5347
aI40
aI33
aI128
aI13
aI12
aa(lp183
I185
aI5365
aI277
aI308
aI78
aI27
aI316
aI119
aI103
aI26
aa(lp184
I306
aI91
aI215
aI491
aI326
aI26
aI3
aI3
aI5329
aI14
aa(lp185
I267
aI334
aI395
aI5357
aI1
aI259
aI108
aI75
aI7
aI1
aa(lp186
I555
aI5326
aI274
aI80
aI93
aI138
aI82
aI34
aI211
aI11
aa(lp187
I5319
aI310
aI344
aI440
aI193
aI61
aI53
aI20
aI13
aI51
aa(lp188
I359
aI372
aI95
aI5323
aI423
aI52
aI22
aI19
aI44
aI95
aa(lp189
I309
aI5379
aI438
aI437
aI25
aI19
aI95
aI5
aI96
aI1
aa(lp190
I5327
aI383
aI493
aI175
aI293
aI36
aI65
aI18
aI13
aI1
aa(lp191
I337
aI5332
aI469
aI28
aI148
aI38
aI50
aI233
aI152
aI17
aa(lp192
I115
aI5365
aI582
aI256
aI2
aI424
aI44
aI2
aI13
aI1
aa(lp193
I623
aI237
aI300
aI5304
aI2
aI178
aI145
aI1
aI13
aI1
aa(lp194
I339
aI5347
aI545
aI178
aI18
aI15
aI121
aI16
aI224
aI1
aa(lp195
I220
aI395
aI394
aI341
aI5320
aI25
aI26
aI71
aI1
aI11
aa(lp196
I5329
aI692
aI110
aI361
aI17
aI72
aI1
aI170
aI14
aI38
aa(lp197
I255
aI479
aI165
aI5354
aI176
aI46
aI70
aI75
aI11
aI173
aa(lp198
I553
aI450
aI229
aI5314
aI47
aI32
aI156
aI9
aI1
aI13
aa(lp199
I456
aI203
aI398
aI5331
aI55
aI317
aI39
aI1
aI3
aI1
aa(lp200
I395
aI5360
aI184
aI276
aI424
aI13
aI49
aI39
aI1
aI63
aa(lp201
I5309
aI175
aI465
aI390
aI136
aI169
aI20
aI107
aI24
aI9
aa(lp202
I596
aI109
aI5314
aI371
aI163
aI205
aI12
aI7
aI20
aI7
aa(lp203
I536
aI365
aI404
aI5323
aI41
aI20
aI9
aI8
aI56
aI42
aa(lp204
I700
aI5330
aI73
aI34
aI114
aI120
aI397
aI22
aI12
aI2
aa(lp205
I256
aI459
aI248
aI5306
aI484
aI22
aI13
aI1
aI4
aI11
aa(lp206
I493
aI159
aI5376
aI118
aI481
aI32
aI38
aI24
aI1
aI82
aa(lp207
I241
aI321
aI135
aI5352
aI448
aI98
aI57
aI60
aI13
aI79
aa(lp208
I365
aI5323
aI263
aI307
aI152
aI119
aI81
aI28
aI28
aI138
aa(lp209
I332
aI5317
aI194
aI331
aI31
aI197
aI337
aI10
aI12
aI43
aa(lp210
I5371
aI385
aI439
aI417
aI14
aI30
aI133
aI1
aI13
aI1
aa(lp211
I126
aI5321
aI621
aI336
aI49
aI38
aI190
aI75
aI6
aI42
aa(lp212
I278
aI616
aI345
aI5300
aI76
aI132
aI21
aI12
aI4
aI20
aa(lp213
I557
aI103
aI82
aI414
aI151
aI16
aI5328
aI78
aI26
aI49
aa(lp214
I400
aI203
aI5341
aI256
aI361
aI152
aI33
aI9
aI5
aI44
aa(lp215
I527
aI199
aI425
aI5316
aI213
aI1
aI48
aI55
aI15
aI5
aa(lp216
I438
aI5341
aI418
aI174
aI76
aI45
aI35
aI40
aI228
aI9
aa(lp217
I189
aI266
aI390
aI394
aI166
aI15
aI13
aI5350
aI7
aI14
aa(lp218
I682
aI42
aI188
aI5300
aI17
aI73
aI1
aI360
aI140
aI1
aa(lp219
I551
aI45
aI284
aI387
aI125
aI5350
aI1
aI19
aI1
aI41
aa(lp220
I225
aI5345
aI546
aI413
aI22
aI102
aI15
aI101
aI24
aI11
aa(lp221
I250
aI167
aI5316
aI330
aI69
aI30
aI14
aI148
aI365
aI115
aa(lp222
I602
aI5347
aI401
aI268
aI106
aI22
aI23
aI22
aI4
aI9
aa(lp223
I318
aI5361
aI431
aI371
aI276
aI2
aI8
aI8
aI11
aI18
aa(lp224
I550
aI5346
aI104
aI341
aI24
aI38
aI366
aI23
aI1
aI11
aa(lp225
I419
aI234
aI227
aI5340
aI9
aI491
aI63
aI1
aI19
aI1
aa(lp226
I208
aI251
aI421
aI112
aI5351
aI342
aI66
aI21
aI20
aI12
aa(lp227
I419
aI5322
aI271
aI185
aI259
aI8
aI18
aI305
aI15
aI2
aa(lp228
I280
aI5345
aI314
aI218
aI172
aI295
aI39
aI59
aI72
aI10
aa(lp229
I270
aI5355
aI67
aI479
aI55
aI44
aI25
aI486
aI22
aI1
aa(lp230
I570
aI5376
aI397
aI220
aI39
aI32
aI31
aI1
aI137
aI1
aa(lp231
I149
aI604
aI141
aI382
aI5336
aI67
aI6
aI115
aI2
aI2
aa(lp232
I283
aI5343
aI547
aI344
aI62
aI70
aI92
aI9
aI47
aI7
aa(lp233
I58
aI538
aI366
aI223
aI61
aI25
aI1
aI63
aI5333
aI136
aa(lp234
I261
aI5341
aI487
aI11
aI16
aI333
aI2
aI10
aI317
aI26
aa(lp235
I549
aI5357
aI172
aI79
aI203
aI351
aI29
aI11
aI18
aI35
aa(lp236
I581
aI272
aI102
aI5323
aI256
aI250
aI3
aI10
aI2
aI5
aa(lp237
I320
aI284
aI245
aI5337
aI533
aI40
aI6
aI12
aI15
aI12
aa(lp238
I5317
aI516
aI386
aI404
aI45
aI28
aI69
aI15
aI18
aI6
aa(lp239
I290
aI138
aI381
aI5337
aI605
aI34
aI13
aI1
aI4
aI1
aa(lp240
I408
aI232
aI402
aI288
aI38
aI12
aI16
aI83
aI5320
aI5
aa(lp241
I507
aI5321
aI411
aI107
aI84
aI26
aI334
aI1
aI12
aI1
aa(lp242
I199
aI5338
aI424
aI397
aI172
aI25
aI82
aI69
aI11
aI87
aa(lp243
I578
aI5333
aI442
aI179
aI35
aI60
aI86
aI1
aI69
aI21
aa(lp244
I5354
aI111
aI373
aI357
aI308
aI65
aI209
aI12
aI12
aI3
aa(lp245
I446
aI365
aI513
aI5331
aI78
aI17
aI16
aI6
aI11
aI21
aa(lp246
I315
aI394
aI495
aI5344
aI73
aI84
aI22
aI19
aI7
aI51
aa(lp247
I466
aI90
aI512
aI5361
aI126
aI10
aI38
aI161
aI12
aI28
aa(lp248
I343
aI372
aI407
aI27
aI295
aI1
aI39
aI5298
aI8
aI14
aa(lp249
I565
aI5329
aI230
aI104
aI366
aI28
aI172
aI2
aI2
aI6
aa(lp250
I251
aI445
aI418
aI207
aI20
aI19
aI60
aI4
aI5341
aI39
aa(lp251
I446
aI422
aI115
aI5360
aI414
aI1
aI7
aI14
aI13
aI12
aa(lp252
I5338
aI591
aI299
aI400
aI33
aI12
aI100
aI23
aI2
aI6
aa(lp253
I564
aI5332
aI247
aI299
aI14
aI186
aI83
aI10
aI7
aI62
aa(lp254
I559
aI266
aI437
aI5306
aI100
aI5
aI103
aI11
aI7
aI10
aa(lp255
I180
aI160
aI287
aI5320
aI62
aI45
aI542
aI195
aI3
aI10
aa(lp256
I531
aI5367
aI70
aI130
aI176
aI113
aI62
aI13
aI130
aI212
aa(lp257
I426
aI575
aI281
aI5324
aI45
aI21
aI19
aI10
aI25
aI78
aa(lp258
I345
aI5380
aI94
aI366
aI226
aI22
aI27
aI230
aI47
aI67
aa(lp259
I219
aI5343
aI198
aI579
aI13
aI432
aI1
aI1
aI12
aI6
aa(lp260
I425
aI5306
aI336
aI430
aI230
aI11
aI5
aI8
aI6
aI47
aa(lp261
I5361
aI239
aI488
aI518
aI33
aI58
aI23
aI63
aI12
aI9
aa(lp262
I366
aI5324
aI312
aI153
aI97
aI39
aI179
aI330
aI3
aI1
aa(lp263
I476
aI5327
aI407
aI372
aI168
aI27
aI6
aI1
aI7
aI13
aa(lp264
I5378
aI251
aI506
aI30
aI149
aI41
aI347
aI4
aI59
aI39
aa(lp265
I230
aI314
aI544
aI335
aI5324
aI26
aI9
aI12
aI8
aI2
aa(lp266
I5360
aI238
aI407
aI413
aI31
aI280
aI17
aI1
aI1
aI56
aa(lp267
I572
aI323
aI177
aI5326
aI29
aI2
aI239
aI71
aI47
aI18
aa(lp268
I390
aI5337
aI469
aI84
aI98
aI242
aI167
aI10
aI6
aI1
aa(lp269
I757
aI482
aI49
aI5321
aI67
aI18
aI18
aI78
aI4
aI10
aa(lp270
I237
aI324
aI333
aI201
aI276
aI17
aI2
aI5317
aI88
aI9
aa(lp271
I303
aI622
aI338
aI5326
aI141
aI1
aI35
aI1
aI14
aI23
aa(lp272
I581
aI5336
aI363
aI373
aI113
aI1
aI5
aI10
aI9
aI13
aa(lp273
I371
aI254
aI57
aI184
aI5313
aI467
aI119
aI25
aI9
aI5
aa(lp274
I453
aI199
aI536
aI98
aI7
aI148
aI5302
aI42
aI8
aI11
aa(lp275
I247
aI178
aI360
aI498
aI9
aI117
aI19
aI30
aI5335
aI11
aa(lp276
I451
aI5311
aI530
aI273
aI1
aI191
aI11
aI29
aI6
aI1
aa(lp277
I5318
aI314
aI316
aI649
aI5
aI8
aI95
aI87
aI11
aI1
aa(lp278
I432
aI125
aI445
aI5328
aI265
aI65
aI14
aI22
aI1
aI107
aa.