(lp0
(I18254
I1682
I9821
I6851
tp1
a(I18215
I8671
I2051
I7671
tp2
a(I18306
I1330
I9312
I7660
tp3
a(I18215
I11492
I3318
I3583
tp4
a(I18225
I386
I11728
I6269
tp5
a(I18257
I903
I11277
I6171
tp6
a(I18371
I2632
I7980
I7625
tp7
a(I18217
I550
I11428
I6413
tp8
a(I18216
I3632
I7178
I7582
tp9
a(I18577
I2036
I8928
I7067
tp10
a(I18532
I1796
I8032
I8248
tp11
a(I18396
I686
I8693
I8833
tp12
a(I18215
I1870
I9797
I6726
tp13
a(I18576
I2929
I8104
I6999
tp14
a(I18369
I2058
I8279
I7902
tp15
a(I18597
I2225
I8434
I7352
tp16
a(I18663
I2009
I7810
I8126
tp17
a(I18838
I3258
I7365
I7147
tp18
a(I18393
I1578
I3936
I12701
tp19
a(I18216
I1646
I8813
I7933
tp20
a(I18383
I1457
I7517
I9251
tp21
a(I18220
I1633
I8467
I8288
tp22
a(I18215
I2067
I9648
I6678
tp23
a(I18329
I915
I8527
I8837
tp24
a(I18243
I619
I9728
I8018
tp25
a(I18215
I1777
I9567
I7049
tp26
a(I18218
I750
I8402
I9238
tp27
a(I19153
I3406
I6975
I7074
tp28
a(I18432
I651
I9006
I8519
tp29
a(I18272
I271
I10178
I7887
tp30
a(I18415
I3120
I8945
I6128
tp31
a(I19010
I2672
I9261
I5665
tp32
a(I18664
I3289
I3825
I10830
tp33
a(I18299
I1131
I9657
I7521
tp34
a(I18225
I2960
I5858
I9565
tp35
a(I18292
I8539
I2950
I6827
tp36
a(I18223
I2437
I10440
I5508
tp37
a(I18910
I1872
I9830
I5996
tp38
a(I18226
I353
I10659
I7370
tp39
a(I18293
I2511
I9057
I6747
tp40
a(I18215
I1921
I9706
I6766
tp41
a(I18339
I217
I10881
I7171
tp42
a(I18215
I792
I9146
I8455
tp43
a(I18215
I710
I9053
I8630
tp44
a(I18280
I10243
I1607
I6478
tp45
a(I18233
I8178
I1429
I8768
tp46
a(I18436
I383
I9053
I8736
tp47
a(I18244
I5876
I2445
I10043
tp48
a(I18215
I1011
I10219
I7163
tp49
a(I18343
I9178
I2054
I7033
tp50
a(I18448
I1776
I7071
I9313
tp51
a(I18299
I2234
I9976
I6099
tp52
a(I18244
I828
I4101
I13435
tp53
a(I18461
I532
I8975
I8640
tp54
a(I18712
I2648
I4575
I10673
tp55
a(I18222
I1588
I5849
I10949
tp56
a(I18289
I10455
I1951
I5913
tp57
a(I18266
I788
I8349
I9205
tp58
a(I18914
I2656
I8743
I6295
tp59
a(I18269
I2171
I8840
I7328
tp60
a(I19511
I845
I7187
I9065
tp61
a(I18412
I8658
I1857
I7681
tp62
a(I18272
I531
I7828
I9977
tp63
a(I18215
I2486
I8671
I7236
tp64
a(I19092
I2645
I8675
I6196
tp65
a(I18282
I2102
I9152
I7072
tp66
a(I18325
I8803
I2128
I7352
tp67
a(I18218
I9377
I1577
I7436
tp68
a(I18797
I2783
I8080
I6948
tp69
a(I18594
I2226
I6093
I9695
tp70
a(I18486
I1992
I4472
I11658
tp71
a(I19640
I2308
I4269
I10391
tp72
a(I18781
I2192
I9699
I5936
tp73
a(I18511
I2196
I5034
I10867
tp74
a(I18426
I3108
I7736
I7338
tp75
a(I18292
I871
I7996
I9449
tp76
a(I18269
I1759
I6401
I10179
tp77
a(I18215
I1941
I5670
I10782
tp78
a(I18226
I2029
I7220
I9133
tp79
a(I20566
I2420
I2965
I10657
tp80
a(I18615
I2032
I8207
I7754
tp81
a(I18232
I4103
I4793
I9480
tp82
a(I18301
I1767
I9127
I7413
tp83
a(I18469
I523
I7996
I9620
tp84
a(I18453
I1288
I9443
I7424
tp85
a(I18850
I1325
I9416
I7017
tp86
a(I18485
I2601
I9567
I5955
tp87
a(I18215
I1095
I8999
I8299
tp88
a(I18534
I2597
I9394
I6083
tp89
a(I18232
I8491
I1910
I7975
tp90
a(I18588
I1978
I8503
I7539
tp91
a(I18306
I2170
I7828
I8304
tp92
a(I18322
I1445
I8432
I8409
tp93
a(I18219
I1013
I7551
I9825
tp94
a(I18433
I893
I8767
I8515
tp95
a(I18330
I2050
I8541
I7687
tp96
a(I18817
I3838
I7113
I6840
tp97
a(I18312
I885
I11910
I5501
tp98
a(I18637
I2369
I7857
I7745
tp99
a(I18419
I489
I9075
I8625
tp100
a(I18524
I428
I10256
I7400
tp101
a(I18220
I1242
I9284
I7862
tp102
a(I18215
I2825
I8706
I6862
tp103
a(I18268
I449
I11144
I6747
tp104
a(I18421
I3198
I8286
I6703
tp105
a(I18379
I7272
I3185
I7772
tp106
a(I18245
I291
I11185
I6887
tp107
a(I18322
I951
I7187
I10148
tp108
a(I18823
I1132
I2318
I14335
tp109
a(I18282
I681
I8331
I9314
tp110
a(I18233
I1838
I9192
I7345
tp111
a(I18460
I756
I7483
I9909
tp112
a(I18657
I2046
I9372
I6533
tp113
a(I18511
I2910
I7279
I7908
tp114
a(I18246
I9192
I1798
I7372
tp115
a(I18438
I2830
I10961
I4379
tp116
a(I18325
I2412
I6211
I9660
tp117
a(I18819
I4437
I1895
I11457
tp118
a(I18627
I623
I11112
I6246
tp119
a(I18458
I898
I9623
I7629
tp120
a(I18319
I2019
I8141
I8129
tp121
a(I18216
I4232
I8467
I5693
tp122
a(I18216
I1787
I8283
I8322
tp123
a(I18470
I9297
I2268
I6573
tp124
a(I18259
I1696
I8890
I7763
tp125
a(I18432
I2465
I9014
I6697
tp126
a(I19257
I1058
I7549
I8744
tp127
a(I18303
I1791
I8878
I7636
tp128
a(I18301
I2471
I5321
I10515
tp129
a(I18340
I2233
I8197
I7838
tp130
a(I18282
I2107
I8741
I7478
tp131
a(I18335
I463
I8425
I9385
tp132
a(I18515
I6306
I4490
I7297
tp133
a(I18579
I1302
I9276
I7451
tp134
a(I18781
I2365
I8812
I6650
tp135
a(I19407
I1122
I5782
I10297
tp136
a(I18580
I2370
I8628
I7030
tp137
a(I18419
I1669
I8825
I7695
tp138
a(I20581
I1923
I3865
I10239
tp139
a(I18243
I562
I7003
I10800
tp140
a(I18215
I611
I8286
I9496
tp141
a(I18222
I4554
I3428
I10404
tp142
a(I19472
I2589
I8341
I6206
tp143
a(I18215
I1955
I8609
I7829
tp144
a(I18478
I1971
I8152
I8007
tp145
a(I18226
I2363
I8755
I7264
tp146
a(I18244
I9023
I2516
I6825
tp147
a(I19043
I350
I9087
I8128
tp148
a(I19045
I3840
I7630
I6093
tp149
a(I18215
I562
I9710
I8121
tp150
a(I18295
I1182
I8675
I8456
tp151
a(I18318
I2444
I8516
I7330
tp152
a(I18293
I8775
I1883
I7657
tp153
a(I18338
I1990
I8329
I7951
tp154
a(I18489
I2858
I7886
I7375
tp155
a(I18272
I1907
I8466
I7963
tp156
a(I19269
I2553
I8446
I6340
tp157
a(I18620
I1700
I10452
I5836
tp158
a(I18319
I2198
I9160
I6931
tp159
a(I18492
I2237
I8064
I7815
tp160
a(I18276
I11088
I1478
I5766
tp161
a(I18771
I2011
I7987
I7839
tp162
a(I18711
I2167
I3504
I12226
tp163
a(I18397
I923
I8234
I9054
tp164
a(I18255
I602
I10833
I6918
tp165
a(I18256
I2119
I7896
I8337
tp166
a(I18313
I1338
I7505
I9452
tp167
a(I18337
I11509
I4513
I2249
tp168
a(I18316
I2687
I9540
I6065
tp169
a(I18351
I2794
I8524
I6939
tp170
a(I18215
I431
I10976
I6986
tp171
a(I18686
I2064
I8760
I7098
tp172
a(I18252
I8710
I1838
I7808
tp173
a(I19293
I2777
I7777
I6761
tp174
a(I18222
I11689
I290
I6407
tp175
a(I18828
I482
I10534
I6764
tp176
a(I18457
I775
I4701
I12675
tp177
a(I18332
I4125
I3217
I10934
tp178
a(I18880
I2358
I7954
I7416
tp179
a(I18513
I460
I8729
I8906
tp180
a(I18215
I2246
I9183
I6964
tp181
a(I19009
I2494
I8002
I7103
tp182
a(I19537
I1942
I8295
I6834
tp183
a(I18558
I754
I10459
I6837
tp184
a(I18220
I9387
I2099
I6902
tp185
a(I18268
I433
I9271
I8636
tp186
a(I18249
I2313
I3296
I12750
tp187
a(I18235
I2840
I9154
I6379
tp188
a(I18488
I2355
I8737
I7028
tp189
a(I18330
I2599
I8088
I7591
tp190
a(I18376
I2311
I8995
I6926
tp191
a(I18533
I2118
I8023
I7934
tp192
a(I18354
I11254
I390
I6610
tp193
a(I18271
I644
I9279
I8414
tp194
a(I18248
I2448
I8738
I7174
tp195
a(I18232
I2704
I5748
I9924
tp196
a(I18419
I2518
I9415
I6256
tp197
a(I18232
I2034
I8454
I7888
tp198
a(I18222
I335
I11508
I6543
tp199
a(I18824
I752
I8977
I8055
tp200
a(I18215
I1064
I5622
I11707
tp201
a(I18271
I8616
I1901
I7820
tp202
a(I18215
I625
I9184
I8584
tp203
a(I18333
I383
I9020
I8872
tp204
a(I18215
I8922
I1706
I7765
tp205
a(I18387
I1966
I7732
I8523
tp206
a(I18399
I1814
I7644
I8751
tp207
a(I20842
I759
I8490
I6517
tp208
a(I18215
I442
I10874
I7077
tp209
a(I18525
I12929
I3329
I1825
tp210
a(I18255
I397
I8131
I9825
tp211
a(I18215
I2045
I9595
I6753
tp212
a(I18267
I1859
I8192
I8290
tp213
a(I18839
I1116
I6605
I10048
tp214
a(I18451
I8460
I1534
I8163
tp215
a(I18494
I1477
I11238
I5399
tp216
a(I18306
I2183
I8616
I7503
tp217
a(I18232
I8925
I1946
I7505
tp218
a(I18215
I3340
I9842
I5211
tp219
a(I18299
I451
I11158
I6700
tp220
a(I18227
I3236
I5281
I9864
tp221
a(I18468
I689
I10817
I6634
tp222
a(I18272
I6048
I2236
I10052
tp223
a(I18653
I918
I9122
I7915
tp224
a(I18224
I8361
I1441
I8582
tp225
a(I18505
I12442
I1628
I4033
tp226
a(I18305
I447
I8181
I9675
tp227
a(I18290
I2876
I8303
I7139
tp228
a(I19154
I254
I10084
I7116
tp229
a(I18349
I3322
I8400
I6537
tp230
a(I18305
I8397
I2052
I7854
tp231
a(I18217
I388
I11659
I6344
tp232
a(I18215
I2494
I9827
I6072
tp233
a(I18260
I9859
I1893
I6596
tp234
a(I18248
I468
I10974
I6918
tp235
a(I18265
I10039
I1536
I6768
tp236
a(I18424
I1530
I6740
I9914
tp237
a(I18215
I3997
I5316
I9080
tp238
a(I18263
I6679
I2128
I9538
tp239
a(I18405
I2050
I3522
I12631
tp240
a(I18218
I932
I6609
I10849
tp241
a(I19229
I2827
I9268
I5284
tp242
a(I18215
I9775
I6713
I1905
tp243
a(I18235
I2328
I7024
I9021
tp244
a(I18319
I784
I8593
I8912
tp245
a(I18436
I2018
I5722
I10432
tp246
a(I19158
I1918
I7368
I8164
tp247
a(I18336
I370
I9621
I8281
tp248
a(I18377
I549
I7818
I9864
tp249
a(I18381
I1830
I7953
I8444
tp250
a(I18345
I1831
I9052
I7380
tp251
a(I18277
I8771
I1510
I8050
tp252
a(I18453
I1283
I9407
I7465
tp253
a(I18241
I1555
I9386
I7426
tp254
a(I18293
I487
I9605
I8223
tp255
a(I18868
I2852
I8907
I5981
tp256
a(I18431
I880
I10650
I6647
tp257
a(I19038
I2478
I2030
I13062
tp258
a(I18223
I646
I8154
I9585
tp259
a(I18265
I1571
I8708
I8064
tp260
a(I18349
I2639
I5749
I9871
tp261
a(I19290
I593
I9938
I6787
tp262
a(I18620
I3413
I4143
I10432
tp263
a(I18397
I605
I9125
I8481
tp264
a(I18405
I6574
I2698
I8931
tp265
a(I18983
I1000
I10398
I6227
tp266
a(I18272
I762
I11769
I5805
tp267
a(I18266
I8906
I1650
I7786
tp268
a(I18544
I9544
I1562
I6958
tp269
a(I18741
I6106
I1763
I9998
tp270
a(I18272
I1881
I8983
I7472
tp271
a(I18389
I1168
I8859
I8192
tp272
a(I18304
I3032
I2502
I12770
tp273
a(I18241
I4787
I4178
I9402
tp274
a(I18584
I1968
I8759
I7297
tp275
a(I18273
I4155
I4393
I9787
tp276
a(I18318
I9506
I1629
I7155
tp277
a(I18586
I10845
I366
I6811
tp278
a.