(lp0
(I18254
I9821
I8533
tp1
a(I18215
I10722
I7671
tp2
a(I18306
I9312
I8990
tp3
a(I18215
I14810
I3583
tp4
a(I18225
I12114
I6269
tp5
a(I18257
I12180
I6171
tp6
a(I18371
I2632
I15605
tp7
a(I18217
I11978
I6413
tp8
a(I18216
I3632
I14760
tp9
a(I18577
I8928
I9103
tp10
a(I18532
I8032
I10044
tp11
a(I18396
I8693
I9519
tp12
a(I18215
I9797
I8596
tp13
a(I18576
I2929
I15103
tp14
a(I18369
I8279
I9960
tp15
a(I18597
I2225
I15786
tp16
a(I18663
I9819
I8126
tp17
a(I18838
I3258
I14512
tp18
a(I18393
I3936
I14279
tp19
a(I18216
I8813
I9579
tp20
a(I18383
I7517
I10708
tp21
a(I18220
I8467
I9921
tp22
a(I18215
I9648
I8745
tp23
a(I18329
I8527
I9752
tp24
a(I18243
I9728
I8637
tp25
a(I18215
I9567
I8826
tp26
a(I18218
I8402
I9988
tp27
a(I19153
I3406
I14049
tp28
a(I18432
I9006
I9170
tp29
a(I18272
I10449
I7887
tp30
a(I18415
I3120
I15073
tp31
a(I19010
I2672
I14926
tp32
a(I22489
I3289
I10830
tp33
a(I18299
I9657
I8652
tp34
a(I18225
I5858
I12525
tp35
a(I18292
I11489
I6827
tp36
a(I18223
I10440
I7945
tp37
a(I18910
I9830
I7868
tp38
a(I18226
I11012
I7370
tp39
a(I18293
I9057
I9258
tp40
a(I18215
I1921
I16472
tp41
a(I18339
I11098
I7171
tp42
a(I18215
I9146
I9247
tp43
a(I18215
I9053
I9340
tp44
a(I18280
I10243
I8085
tp45
a(I18233
I8178
I10197
tp46
a(I18436
I9053
I9119
tp47
a(I18244
I5876
I12488
tp48
a(I18215
I10219
I8174
tp49
a(I18343
I9178
I9087
tp50
a(I18448
I7071
I11089
tp51
a(I18299
I2234
I16075
tp52
a(I18244
I828
I17536
tp53
a(I18461
I8975
I9172
tp54
a(I18712
I2648
I15248
tp55
a(I18222
I5849
I12537
tp56
a(I18289
I10455
I7864
tp57
a(I18266
I8349
I9993
tp58
a(I18914
I2656
I15038
tp59
a(I18269
I8840
I9499
tp60
a(I19511
I7187
I9910
tp61
a(I18412
I8658
I9538
tp62
a(I18272
I7828
I10508
tp63
a(I18215
I2486
I15907
tp64
a(I19092
I2645
I14871
tp65
a(I18282
I11254
I7072
tp66
a(I18325
I8803
I9480
tp67
a(I18218
I9377
I9013
tp68
a(I18797
I2783
I15028
tp69
a(I18594
I6093
I11921
tp70
a(I18486
I1992
I16130
tp71
a(I19640
I2308
I14660
tp72
a(I18781
I2192
I15635
tp73
a(I18511
I5034
I13063
tp74
a(I18426
I7736
I10446
tp75
a(I18292
I7996
I10320
tp76
a(I18269
I6401
I11938
tp77
a(I18215
I5670
I12723
tp78
a(I18226
I9249
I9133
tp79
a(I20566
I2420
I13622
tp80
a(I18615
I8207
I9786
tp81
a(I18232
I4103
I14273
tp82
a(I18301
I9127
I9180
tp83
a(I18469
I7996
I10143
tp84
a(I18453
I9443
I8712
tp85
a(I18850
I9416
I8342
tp86
a(I18485
I9567
I8556
tp87
a(I18215
I8999
I9394
tp88
a(I18534
I9394
I8680
tp89
a(I18232
I8491
I9885
tp90
a(I18588
I8503
I9517
tp91
a(I18306
I7828
I10474
tp92
a(I18322
I8432
I9854
tp93
a(I18219
I7551
I10838
tp94
a(I18433
I8767
I9408
tp95
a(I18330
I8541
I9737
tp96
a(I18817
I10951
I6840
tp97
a(I18312
I12795
I5501
tp98
a(I18637
I2369
I15602
tp99
a(I18419
I9075
I9114
tp100
a(I18524
I10684
I7400
tp101
a(I18220
I9284
I9104
tp102
a(I18215
I2825
I15568
tp103
a(I18268
I11593
I6747
tp104
a(I18421
I11484
I6703
tp105
a(I18379
I10457
I7772
tp106
a(I18245
I11476
I6887
tp107
a(I18322
I7187
I11099
tp108
a(I18823
I1132
I16653
tp109
a(I18282
I8331
I9995
tp110
a(I18233
I1838
I16537
tp111
a(I18460
I7483
I10665
tp112
a(I18657
I2046
I15905
tp113
a(I18511
I2910
I15187
tp114
a(I18246
I9192
I9170
tp115
a(I18438
I13791
I4379
tp116
a(I18325
I6211
I12072
tp117
a(I23256
I1895
I11457
tp118
a(I18627
I11735
I6246
tp119
a(I18458
I9623
I8527
tp120
a(I18319
I8141
I10148
tp121
a(I18216
I4232
I14160
tp122
a(I18216
I8283
I10109
tp123
a(I18470
I9297
I8841
tp124
a(I18259
I8890
I9459
tp125
a(I18432
I11479
I6697
tp126
a(I19257
I7549
I9802
tp127
a(I18303
I8878
I9427
tp128
a(I18301
I5321
I12986
tp129
a(I18340
I8197
I10071
tp130
a(I18282
I2107
I16219
tp131
a(I18335
I8425
I9848
tp132
a(I18515
I10796
I7297
tp133
a(I18579
I9276
I8753
tp134
a(I18781
I8812
I9015
tp135
a(I19407
I5782
I11419
tp136
a(I18580
I2370
I15658
tp137
a(I18419
I8825
I9364
tp138
a(I20581
I1923
I14104
tp139
a(I18243
I7003
I11362
tp140
a(I18215
I8286
I10107
tp141
a(I18222
I4554
I13832
tp142
a(I19472
I2589
I14547
tp143
a(I18215
I8609
I9784
tp144
a(I18478
I1971
I16159
tp145
a(I18226
I8755
I9627
tp146
a(I18244
I11539
I6825
tp147
a(I19043
I9087
I8478
tp148
a(I19045
I11470
I6093
tp149
a(I18215
I9710
I8683
tp150
a(I18295
I8675
I9638
tp151
a(I18318
I10960
I7330
tp152
a(I18293
I8775
I9540
tp153
a(I18338
I8329
I9941
tp154
a(I18489
I7886
I10233
tp155
a(I18272
I1907
I16429
tp156
a(I19269
I10999
I6340
tp157
a(I18620
I10452
I7536
tp158
a(I18319
I9160
I9129
tp159
a(I18492
I8064
I10052
tp160
a(I18276
I12566
I5766
tp161
a(I18771
I2011
I15826
tp162
a(I22215
I2167
I12226
tp163
a(I18397
I8234
I9977
tp164
a(I18255
I11435
I6918
tp165
a(I18256
I7896
I10456
tp166
a(I18313
I7505
I10790
tp167
a(I18337
I13758
I4513
tp168
a(I18316
I9540
I8752
tp169
a(I18351
I2794
I15463
tp170
a(I18215
I11407
I6986
tp171
a(I18686
I8760
I9162
tp172
a(I18252
I8710
I9646
tp173
a(I19293
I2777
I14538
tp174
a(I18222
I11979
I6407
tp175
a(I18828
I10534
I7246
tp176
a(I18457
I775
I17376
tp177
a(I18332
I7342
I10934
tp178
a(I18880
I7954
I9774
tp179
a(I18513
I8729
I9366
tp180
a(I18215
I2246
I16147
tp181
a(I19009
I8002
I9597
tp182
a(I19537
I8295
I8776
tp183
a(I18558
I11213
I6837
tp184
a(I18220
I9387
I9001
tp185
a(I18268
I9271
I9069
tp186
a(I18249
I2313
I16046
tp187
a(I18235
I2840
I15533
tp188
a(I18488
I8737
I9383
tp189
a(I18330
I10687
I7591
tp190
a(I18376
I2311
I15921
tp191
a(I18533
I10141
I7934
tp192
a(I18354
I11644
I6610
tp193
a(I18271
I9279
I9058
tp194
a(I18248
I8738
I9622
tp195
a(I18232
I5748
I12628
tp196
a(I18419
I2518
I15671
tp197
a(I18232
I8454
I9922
tp198
a(I18222
I11843
I6543
tp199
a(I18824
I8977
I8807
tp200
a(I18215
I1064
I17329
tp201
a(I18271
I8616
I9721
tp202
a(I18215
I9184
I9209
tp203
a(I18333
I9020
I9255
tp204
a(I18215
I8922
I9471
tp205
a(I18387
I7732
I10489
tp206
a(I18399
I7644
I10565
tp207
a(I20842
I8490
I7276
tp208
a(I18215
I11316
I7077
tp209
a(I18525
I14754
I3329
tp210
a(I18255
I8131
I10222
tp211
a(I18215
I9595
I8798
tp212
a(I18267
I8192
I10149
tp213
a(I18839
I6605
I11164
tp214
a(I18451
I8460
I9697
tp215
a(I18494
I12715
I5399
tp216
a(I18306
I8616
I9686
tp217
a(I18232
I8925
I9451
tp218
a(I18215
I13182
I5211
tp219
a(I18299
I11609
I6700
tp220
a(I23508
I3236
I9864
tp221
a(I18468
I11506
I6634
tp222
a(I18272
I6048
I12288
tp223
a(I18653
I9122
I8833
tp224
a(I18224
I8361
I10023
tp225
a(I18505
I14070
I4033
tp226
a(I18305
I8181
I10122
tp227
a(I18290
I8303
I10015
tp228
a(I19154
I10084
I7370
tp229
a(I18349
I11722
I6537
tp230
a(I18305
I8397
I9906
tp231
a(I18217
I12047
I6344
tp232
a(I18215
I9827
I8566
tp233
a(I18260
I9859
I8489
tp234
a(I18248
I11442
I6918
tp235
a(I18265
I10039
I8304
tp236
a(I18424
I6740
I11444
tp237
a(I18215
I3997
I14396
tp238
a(I18263
I6679
I11666
tp239
a(I18405
I3522
I14681
tp240
a(I18218
I6609
I11781
tp241
a(I19229
I2827
I14552
tp242
a(I18215
I11680
I6713
tp243
a(I18235
I7024
I11349
tp244
a(I18319
I8593
I9696
tp245
a(I18436
I2018
I16154
tp246
a(I19158
I7368
I10082
tp247
a(I18336
I9621
I8651
tp248
a(I18377
I7818
I10413
tp249
a(I18381
I9783
I8444
tp250
a(I18345
I9052
I9211
tp251
a(I18277
I8771
I9560
tp252
a(I18453
I9407
I8748
tp253
a(I18241
I9386
I8981
tp254
a(I18293
I9605
I8710
tp255
a(I18868
I11759
I5981
tp256
a(I18431
I11530
I6647
tp257
a(I21068
I2478
I13062
tp258
a(I18223
I8154
I10231
tp259
a(I18265
I8708
I9635
tp260
a(I18349
I2639
I15620
tp261
a(I19290
I9938
I7380
tp262
a(I18620
I4143
I13845
tp263
a(I18397
I9125
I9086
tp264
a(I18405
I6574
I11629
tp265
a(I18983
I11398
I6227
tp266
a(I18272
I12531
I5805
tp267
a(I18266
I8906
I9436
tp268
a(I18544
I9544
I8520
tp269
a(I18741
I6106
I11761
tp270
a(I18272
I8983
I9353
tp271
a(I18389
I8859
I9360
tp272
a(I18304
I3032
I15272
tp273
a(I18241
I4787
I13580
tp274
a(I18584
I8759
I9265
tp275
a(I18273
I4155
I14180
tp276
a(I18318
I9506
I8784
tp277
a(I18586
I11211
I6811
tp278
a.