(lp0
(lp1
I71772
aI62167
aI13425
aI72164
aI68942
aI14580
aI48745
aI88271
aI17353
aI46024
aI82124
aI14680
aa(lp2
I67834
aI60410
aI18978
aI68759
aI66080
aI15951
aI44747
aI88011
aI37181
aI41890
aI85112
aI33560
aa(lp3
I74224
aI78828
aI20680
aI70930
aI80067
aI21466
aI47405
aI89451
aI25246
aI45629
aI86586
aI21463
aa(lp4
I78911
aI60601
aI43175
aI78658
aI61416
aI44364
aI65394
aI64212
aI51480
aI67713
aI63953
aI44750
aa(lp5
I69788
aI69645
aI19515
aI70051
aI75178
aI17211
aI44352
aI103761
aI18751
aI42614
aI100988
aI18452
aa(lp6
I66470
aI59547
aI47161
aI63459
aI58556
aI49272
aI45326
aI52412
aI63020
aI43160
aI50155
aI58499
aa(lp7
I76263
aI85171
aI10748
aI75306
aI87599
aI10637
aI54232
aI103724
aI7049
aI52167
aI98438
aI4339
aa(lp8
I68684
aI66448
aI35320
aI65480
aI70848
aI31707
aI49255
aI83623
aI38267
aI48790
aI85967
aI31672
aa(lp9
I64557
aI63176
aI43800
aI64097
aI62083
aI40942
aI46526
aI58738
aI61507
aI45121
aI60269
aI54027
aa(lp10
I62538
aI63469
aI42603
aI62158
aI66769
aI39919
aI43543
aI70648
aI51096
aI41094
aI65370
aI54710
aa(lp11
I69448
aI85476
aI9594
aI69568
aI89235
aI10929
aI50821
aI116582
aI12993
aI48425
aI111784
aI14537
aa(lp12
I56859
aI50959
aI48514
aI55534
aI52229
aI53201
aI40109
aI40332
aI81406
aI38271
aI38048
aI76677
aa(lp13
I66842
aI58512
aI20654
aI66706
aI60962
aI18822
aI46267
aI75331
aI41279
aI44064
aI76421
aI34451
aa(lp14
I67074
aI78583
aI29354
aI66246
aI80744
aI26273
aI49272
aI82434
aI37584
aI46340
aI81223
aI36336
aa(lp15
I61415
aI59569
aI34967
aI59757
aI61141
aI36883
aI42380
aI64908
aI51206
aI40422
aI61102
aI51034
aa(lp16
I73533
aI67429
aI41710
aI73443
aI68378
aI45819
aI44801
aI53190
aI75413
aI43279
aI51822
aI72339
aa(lp17
I99230
aI56993
aI4326
aI95820
aI61208
aI3543
aI80093
aI80964
aI1896
aI75749
aI71316
aI914
aa(lp18
I68822
aI67185
aI47737
aI70966
aI68087
aI49678
aI48853
aI63543
aI56017
aI47388
aI62108
aI54387
aa(lp19
I67868
aI79010
aI14105
aI67854
aI82945
aI12954
aI52184
aI110787
aI13027
aI49436
aI107390
aI9601
aa(lp20
I74561
aI65135
aI9300
aI75337
aI66676
aI6454
aI52697
aI107132
aI6648
aI50261
aI100651
aI4941
aa(lp21
I72154
aI67440
aI15828
aI71136
aI71092
aI14792
aI46229
aI102415
aI16768
aI44322
aI98879
aI13554
aa(lp22
I70560
aI71497
aI13178
aI69779
aI72873
aI13132
aI52569
aI98126
aI16417
aI50301
aI94081
aI15474
aa(lp23
I77293
aI70400
aI17568
aI76765
aI74727
aI12083
aI55603
aI98801
aI6297
aI52099
aI94868
aI4403
aa(lp24
I69523
aI80208
aI22461
aI68234
aI86084
aI19302
aI52699
aI103207
aI21693
aI50507
aI103157
aI18504
aa(lp25
I68049
aI65196
aI23937
aI67499
aI65781
aI23105
aI43935
aI85512
aI30600
aI41693
aI80993
aI33048
aa(lp26
I68317
aI70790
aI10168
aI67016
aI76381
aI9380
aI47494
aI108703
aI8865
aI47681
aI105809
aI7055
aa(lp27
I73298
aI83946
aI6045
aI72953
aI86685
aI3030
aI62438
aI113726
aI3870
aI58595
aI108749
aI2902
aa(lp28
I76521
aI61534
aI55568
aI75467
aI59939
aI48870
aI53411
aI57523
aI58275
aI53046
aI55080
aI55392
aa(lp29
I66823
aI85284
aI9396
aI65937
aI85773
aI8920
aI49533
aI115154
aI9158
aI48242
aI113130
aI8784
aa(lp30
I78279
aI73149
aI7282
aI76788
aI77713
aI6772
aI53091
aI118579
aI6056
aI50606
aI114216
aI5358
aa(lp31
I73017
aI61055
aI52353
aI71634
aI58988
aI54956
aI51249
aI53110
aI62658
aI48290
aI51926
aI57377
aa(lp32
I77992
aI63740
aI48444
aI73741
aI63935
aI46884
aI52292
aI54573
aI57333
aI48493
aI52058
aI53916
aa(lp33
I66926
aI58698
aI60056
aI68031
aI57553
aI62228
aI44287
aI51184
aI64687
aI43883
aI47235
aI65299
aa(lp34
I73624
aI77469
aI17051
aI74261
aI82167
aI14885
aI52059
aI100042
aI18659
aI49072
aI98527
aI15895
aa(lp35
I79240
aI68869
aI10585
aI75216
aI73112
aI11116
aI50880
aI106336
aI12694
aI49592
aI104369
aI9273
aa(lp36
I68893
aI61780
aI22334
aI69653
aI65508
aI20770
aI47761
aI92531
aI26140
aI45996
aI89823
aI20705
aa(lp37
I65824
aI58624
aI56655
aI65630
aI56024
aI59043
aI42424
aI40254
aI74750
aI42187
aI40859
aI69531
aa(lp38
I65958
aI67096
aI33913
aI66411
aI69768
aI28968
aI48951
aI76120
aI39107
aI50880
aI72941
aI34385
aa(lp39
I70192
aI74564
aI18605
aI65867
aI76239
aI15387
aI45494
aI96601
aI27520
aI44464
aI96392
aI23298
aa(lp40
I63267
aI76778
aI19354
aI63398
aI82499
aI18892
aI44637
aI105034
aI27484
aI43037
aI102586
aI22163
aa(lp41
I75829
aI69130
aI34319
aI75537
aI70357
aI35739
aI57435
aI65552
aI47601
aI53933
aI62754
aI42030
aa(lp42
I68755
aI71773
aI12456
aI67536
aI75563
aI12115
aI53827
aI99747
aI19377
aI53222
aI96514
aI13350
aa(lp43
I79870
aI69342
aI2762
aI81794
aI67930
aI1481
aI60972
aI111662
aI983
aI58194
aI112232
aI493
aa(lp44
I68066
aI59878
aI23720
aI66014
aI63600
aI21390
aI44560
aI88730
aI37599
aI43428
aI89902
aI31040
aa(lp45
I73995
aI68119
aI14126
aI74551
aI73719
aI9436
aI50543
aI106320
aI9449
aI46342
aI101570
aI8063
aa(lp46
I70437
aI81245
aI9715
aI69218
aI83391
aI6938
aI52592
aI112849
aI8264
aI52485
aI110434
aI7469
aa(lp47
I66690
aI61077
aI29670
aI64838
aI63936
aI29502
aI49383
aI75447
aI44282
aI46838
aI72542
aI42686
aa(lp48
I73684
aI69962
aI5892
aI71764
aI74483
aI4992
aI54271
aI110516
aI5103
aI52043
aI106976
aI4828
aa(lp49
I79930
aI74218
aI21372
aI79570
aI75516
aI24708
aI56656
aI80663
aI25876
aI56042
aI79579
aI25075
aa(lp50
I67178
aI65645
aI29932
aI63562
aI67646
aI27888
aI46402
aI84648
aI39886
aI45655
aI83948
aI34861
aa(lp51
I77198
aI74037
aI15389
aI80855
aI71589
aI14496
aI60323
aI96465
aI13025
aI55251
aI92263
aI11574
aa(lp52
I73432
aI70500
aI38096
aI73993
aI71038
aI41623
aI50977
aI66226
aI56261
aI47693
aI64138
aI51221
aa(lp53
I67760
aI73814
aI20428
aI66425
aI76377
aI19529
aI51611
aI104932
aI19981
aI49405
aI102405
aI16038
aa(lp54
I77687
aI76893
aI18462
aI73749
aI82360
aI18077
aI48571
aI98242
aI24319
aI46335
aI94678
aI20293
aa(lp55
I75088
aI75427
aI30321
aI69535
aI74307
aI32187
aI47102
aI81750
aI43570
aI45447
aI77128
aI40758
aa(lp56
I72800
aI60411
aI45323
aI71798
aI59527
aI46612
aI48119
aI52147
aI66065
aI45661
aI49525
aI61566
aa(lp57
I74726
aI61476
aI10731
aI73104
aI65018
aI11827
aI51156
aI93557
aI21194
aI50217
aI95469
aI18211
aa(lp58
I72808
aI70791
aI12671
aI72046
aI76695
aI10679
aI48529
aI108564
aI6627
aI46936
aI105880
aI4130
aa(lp59
I74608
aI61896
aI52831
aI76367
aI60906
aI53184
aI48240
aI48169
aI63089
aI47169
aI46560
aI60460
aa(lp60
I68582
aI70047
aI28895
aI68631
aI73616
aI30168
aI51485
aI79943
aI40553
aI48836
aI78936
aI37076
aa(lp61
I79945
aI68847
aI14066
aI78246
aI71752
aI14470
aI61154
aI97870
aI15836
aI54859
aI94394
aI10547
aa(lp62
I71440
aI83255
aI9299
aI72040
aI88309
aI9306
aI56302
aI118428
aI10173
aI52305
aI113460
aI8858
aa(lp63
I77140
aI84171
aI5799
aI74466
aI90875
aI3806
aI49497
aI123420
aI1782
aI48494
aI117840
aI1673
aa(lp64
I68860
aI59021
aI40596
aI67121
aI58249
aI40060
aI47290
aI53496
aI60150
aI46112
aI55219
aI58265
aa(lp65
I66868
aI55923
aI54688
aI66268
aI54850
aI57198
aI43955
aI42975
aI80423
aI42944
aI42132
aI73704
aa(lp66
I87460
aI69468
aI11611
aI82465
aI74187
aI10149
aI72227
aI84902
aI11298
aI67913
aI85128
aI10842
aa(lp67
I63817
aI66889
aI34343
aI59705
aI67313
aI37743
aI40248
aI64409
aI57933
aI39749
aI66836
aI52652
aa(lp68
I70348
aI70524
aI13281
aI68069
aI73399
aI12740
aI49697
aI101752
aI15860
aI49094
aI99436
aI12267
aa(lp69
I79456
aI68629
aI37289
aI81042
aI67612
aI35100
aI59002
aI68343
aI49681
aI56967
aI69046
aI41929
aa(lp70
I69095
aI77007
aI25071
aI67797
aI76197
aI28645
aI48429
aI99354
aI29091
aI48518
aI100735
aI19977
aa(lp71
I77100
aI67630
aI13775
aI77445
aI70897
aI12222
aI51988
aI106205
aI14312
aI50725
aI103166
aI12952
aa(lp72
I84616
aI69032
aI42004
aI84741
aI66446
aI45134
aI66429
aI64848
aI44299
aI63049
aI64438
aI49609
aa(lp73
I95012
aI56528
aI14257
aI103366
aI63901
aI16881
aI63418
aI82183
aI22864
aI59551
aI79509
aI19975
aa(lp74
I69693
aI72534
aI18154
aI68781
aI77451
aI17502
aI53456
aI105078
aI21423
aI51507
aI103240
aI19047
aa(lp75
I69599
aI71012
aI23009
aI68459
aI74331
aI22773
aI48125
aI90482
aI34886
aI45995
aI87074
aI33215
aa(lp76
I70277
aI65385
aI21774
aI69122
aI70918
aI21053
aI42198
aI91145
aI43274
aI41193
aI88539
aI40628
aa(lp77
I67879
aI69464
aI11770
aI68731
aI73396
aI10270
aI50042
aI101850
aI17843
aI47643
aI98780
aI16407
aa(lp78
I69782
aI61658
aI58367
aI72909
aI58906
aI61936
aI47264
aI57593
aI60404
aI48246
aI54788
aI58709
aa(lp79
I71230
aI78393
aI19447
aI69494
aI74511
aI16219
aI58435
aI97029
aI17355
aI58861
aI95027
aI19199
aa(lp80
I71466
aI79338
aI27401
aI69392
aI85025
aI19153
aI53384
aI90231
aI29475
aI52446
aI88663
aI28905
aa(lp81
I69539
aI68003
aI24308
aI66612
aI74233
aI24168
aI48686
aI89474
aI33692
aI45847
aI87762
aI26545
aa(lp82
I65088
aI68293
aI13739
aI64932
aI70744
aI15118
aI46756
aI94153
aI29239
aI45016
aI91429
aI24693
aa(lp83
I68150
aI65076
aI29990
aI65440
aI67454
aI32951
aI45950
aI83606
aI46485
aI43232
aI83958
aI41355
aa(lp84
I72956
aI79786
aI15293
aI70837
aI87332
aI12970
aI49826
aI106572
aI13327
aI46389
aI98347
aI12718
aa(lp85
I68669
aI68970
aI24863
aI65931
aI71553
aI24725
aI45774
aI98010
aI32253
aI45119
aI97652
aI27449
aa(lp86
I65409
aI59765
aI33728
aI61859
aI60635
aI36922
aI42634
aI59698
aI59260
aI41154
aI58523
aI57297
aa(lp87
I70314
aI65192
aI31695
aI67729
aI64319
aI31692
aI50132
aI67907
aI36508
aI47871
aI66742
aI38648
aa(lp88
I72626
aI90718
aI13057
aI69707
aI90797
aI11644
aI48669
aI106339
aI9734
aI47325
aI107034
aI9923
aa(lp89
I71518
aI71813
aI27721
aI70790
aI71505
aI25966
aI51060
aI74505
aI36152
aI48957
aI75051
aI31219
aa(lp90
I75429
aI59417
aI17618
aI73228
aI59188
aI19460
aI49518
aI84992
aI24366
aI48804
aI82341
aI26883
aa(lp91
I70431
aI81696
aI19615
aI69836
aI87564
aI15319
aI58751
aI105744
aI19589
aI56435
aI102949
aI17313
aa(lp92
I70460
aI75663
aI18797
aI69142
aI80696
aI16285
aI49852
aI99726
aI16324
aI48393
aI95031
aI12897
aa(lp93
I76532
aI72794
aI17993
aI73890
aI73870
aI17991
aI57672
aI93256
aI16455
aI56211
aI90770
aI18032
aa(lp94
I73405
aI80757
aI5774
aI75130
aI83657
aI4004
aI52045
aI128191
aI2087
aI51179
aI124232
aI1470
aa(lp95
I69706
aI77771
aI18039
aI69514
aI80942
aI17329
aI51254
aI98652
aI22755
aI49397
aI96895
aI17386
aa(lp96
I74780
aI78749
aI19881
aI70951
aI81631
aI18181
aI47727
aI99087
aI23551
aI45803
aI95435
aI20791
aa(lp97
I68845
aI64434
aI49535
aI66456
aI64300
aI46079
aI43655
aI54746
aI59197
aI42386
aI57019
aI53111
aa(lp98
I74206
aI78396
aI16798
aI72997
aI78344
aI19879
aI56559
aI90529
aI19108
aI54953
aI86819
aI15486
aa(lp99
I68459
aI67691
aI36535
aI67448
aI66775
aI39937
aI46293
aI60010
aI56919
aI46188
aI60548
aI51055
aa(lp100
I65646
aI83562
aI19166
aI63127
aI87113
aI17372
aI47678
aI110855
aI22027
aI45207
aI107564
aI18450
aa(lp101
I70524
aI72503
aI20822
aI69703
aI76704
aI19797
aI52783
aI98863
aI22102
aI51746
aI95844
aI17119
aa(lp102
I72410
aI73519
aI8175
aI72263
aI76680
aI6068
aI52227
aI115484
aI5177
aI50894
aI114345
aI3872
aa(lp103
I67914
aI76417
aI37482
aI67582
aI75549
aI40889
aI50681
aI78016
aI48836
aI47687
aI75756
aI43087
aa(lp104
I63652
aI62967
aI18266
aI63153
aI66726
aI19548
aI47892
aI85000
aI29432
aI45881
aI81682
aI26462
aa(lp105
I80687
aI71281
aI36750
aI80306
aI70754
aI38458
aI55816
aI68752
aI37770
aI54352
aI69467
aI34336
aa(lp106
I71935
aI76074
aI21769
aI69290
aI82407
aI20568
aI52256
aI111047
aI18977
aI50996
aI108240
aI14810
aa(lp107
I72371
aI66930
aI12890
aI72006
aI69256
aI11916
aI46204
aI99154
aI13440
aI45967
aI99622
aI12339
aa(lp108
I74795
aI69341
aI20541
aI74048
aI74007
aI20558
aI51347
aI97559
aI36631
aI48504
aI91490
aI34987
aa(lp109
I77415
aI61565
aI34773
aI78395
aI62046
aI33585
aI60681
aI63658
aI46665
aI59590
aI65048
aI41359
aa(lp110
I69117
aI76038
aI33300
aI63831
aI78265
aI32417
aI44575
aI81696
aI44278
aI42219
aI79818
aI37796
aa(lp111
I76226
aI68215
aI27511
aI74417
aI68924
aI29313
aI49498
aI69453
aI34980
aI47584
aI67772
aI32206
aa(lp112
I72070
aI80309
aI8416
aI71533
aI84439
aI6530
aI53051
aI116612
aI8021
aI52230
aI115411
aI7387
aa(lp113
I64648
aI76440
aI34492
aI63346
aI76061
aI33328
aI46221
aI82923
aI41551
aI44011
aI81231
aI38967
aa(lp114
I76899
aI60479
aI45334
aI77110
aI60487
aI45446
aI51772
aI50341
aI66675
aI49533
aI45487
aI63547
aa(lp115
I73503
aI62743
aI19982
aI72134
aI65901
aI27180
aI47999
aI79586
aI39503
aI47069
aI75435
aI41185
aa(lp116
I69862
aI60368
aI40021
aI71139
aI58845
aI37561
aI60851
aI61094
aI40784
aI56541
aI59149
aI42120
aa(lp117
I66867
aI67407
aI28836
aI63878
aI68114
aI29590
aI45853
aI76585
aI41618
aI45329
aI79095
aI37685
aa(lp118
I76820
aI51266
aI73033
aI78259
aI51150
aI71800
aI49029
aI40131
aI82960
aI47567
aI37796
aI77726
aa(lp119
I64114
aI60621
aI33621
aI63315
aI61857
aI36307
aI49307
aI67290
aI52883
aI47256
aI64118
aI50907
aa(lp120
I72449
aI68051
aI26234
aI64471
aI69189
aI29007
aI47421
aI79331
aI35552
aI44725
aI77305
aI33982
aa(lp121
I83051
aI76522
aI17420
aI76584
aI78402
aI10636
aI54921
aI101196
aI14991
aI50084
aI95980
aI15397
aa(lp122
I71931
aI59615
aI33629
aI72224
aI58852
aI33325
aI57374
aI58260
aI50656
aI61297
aI60052
aI44370
aa(lp123
I73634
aI74571
aI11832
aI70103
aI75748
aI9985
aI53762
aI105005
aI12119
aI52396
aI104971
aI9957
aa(lp124
I67290
aI63498
aI25882
aI66470
aI66710
aI23966
aI46299
aI68609
aI43060
aI45797
aI73116
aI35918
aa(lp125
I68637
aI64986
aI19172
aI67228
aI69689
aI18372
aI41926
aI84601
aI34547
aI40474
aI82457
aI33299
aa(lp126
I72388
aI61682
aI48585
aI75588
aI60558
aI51202
aI55532
aI52127
aI62642
aI53323
aI50247
aI57640
aa(lp127
I69755
aI75386
aI34722
aI67625
aI78575
aI34567
aI47467
aI74224
aI49794
aI45867
aI73829
aI45302
aa(lp128
I72438
aI68280
aI21232
aI69528
aI75128
aI21340
aI48799
aI97601
aI17063
aI47294
aI92840
aI12200
aa(lp129
I70271
aI65451
aI10698
aI71799
aI64010
aI7534
aI54801
aI106628
aI12521
aI51401
aI103908
aI13954
aa(lp130
I80898
aI85566
aI6859
aI73873
aI88022
aI4857
aI51771
aI114169
aI3390
aI50468
aI111586
aI2730
aa(lp131
I67776
aI63720
aI35509
aI71101
aI65144
aI29459
aI47390
aI82392
aI41520
aI47133
aI83760
aI34565
aa(lp132
I69537
aI77265
aI18219
aI68105
aI81990
aI16740
aI49284
aI101671
aI28127
aI47555
aI100823
aI23787
aa(lp133
I61603
aI77175
aI23351
aI60968
aI80084
aI20605
aI52374
aI88777
aI49909
aI49060
aI91309
aI40992
aa(lp134
I78988
aI82045
aI29153
aI76074
aI81321
aI30404
aI61290
aI87745
aI25442
aI60638
aI84513
aI24358
aa(lp135
I69267
aI70250
aI41220
aI70377
aI70706
aI41236
aI50032
aI76930
aI36817
aI49357
aI77613
aI34229
aa(lp136
I71864
aI81347
aI32165
aI68862
aI80529
aI29923
aI55042
aI95197
aI35831
aI48207
aI89188
aI34268
aa(lp137
I66684
aI65785
aI34082
aI67322
aI67723
aI34842
aI53072
aI68936
aI48537
aI50259
aI66626
aI43708
aa(lp138
I64269
aI69641
aI24935
aI60914
aI72145
aI27174
aI46468
aI91934
aI34197
aI44698
aI88729
aI32175
aa(lp139
I77005
aI65506
aI45792
aI76638
aI67865
aI40991
aI58598
aI58206
aI52821
aI55370
aI54757
aI45575
aa(lp140
I74940
aI75952
aI13154
aI73887
aI82217
aI10872
aI51365
aI106489
aI14081
aI47835
aI102102
aI11353
aa(lp141
I67384
aI57155
aI25726
aI68545
aI64425
aI20277
aI43671
aI83698
aI42617
aI41445
aI80961
aI40696
aa(lp142
I70913
aI74306
aI8595
aI67535
aI81021
aI7650
aI49087
aI117903
aI8026
aI47189
aI111236
aI5945
aa(lp143
I79688
aI73545
aI28025
aI74623
aI73187
aI20798
aI55802
aI75726
aI33342
aI51489
aI77223
aI22296
aa(lp144
I71995
aI65224
aI47226
aI71579
aI66329
aI46077
aI48134
aI56709
aI63800
aI46907
aI56211
aI57390
aa(lp145
I62855
aI66170
aI39639
aI63194
aI66771
aI39123
aI47980
aI70449
aI59533
aI47698
aI68946
aI61108
aa(lp146
I64977
aI64492
aI40957
aI62966
aI67675
aI40253
aI43411
aI55896
aI60197
aI42388
aI54029
aI59352
aa(lp147
I70838
aI64631
aI17027
aI69841
aI66746
aI17128
aI47140
aI100098
aI20487
aI45549
aI99315
aI16448
aa(lp148
I63208
aI72227
aI33074
aI63671
aI73773
aI30863
aI47449
aI76260
aI46232
aI46953
aI76094
aI43557
aa(lp149
I70385
aI67896
aI43346
aI67302
aI67609
aI40256
aI47516
aI64996
aI56931
aI44316
aI60757
aI49487
aa(lp150
I75440
aI66390
aI3222
aI75654
aI71657
aI2086
aI52642
aI103814
aI1279
aI50425
aI100605
aI949
aa(lp151
I66865
aI64791
aI40274
aI66038
aI65492
aI39806
aI41530
aI59502
aI59266
aI41028
aI60220
aI56639
aa(lp152
I70741
aI67332
aI53473
aI69606
aI68564
aI51084
aI42632
aI55020
aI64106
aI41276
aI51704
aI61028
aa(lp153
I64746
aI71262
aI20828
aI63822
aI73762
aI19440
aI47745
aI96496
aI22512
aI47304
aI96208
aI19000
aa(lp154
I78373
aI70352
aI14160
aI77024
aI75544
aI10142
aI58659
aI108732
aI8847
aI55648
aI108947
aI7530
aa(lp155
I72457
aI66632
aI16277
aI70803
aI70810
aI12892
aI48012
aI104077
aI13717
aI47860
aI105742
aI10649
aa(lp156
I70530
aI76199
aI8630
aI70595
aI82822
aI8569
aI49585
aI112243
aI6999
aI49811
aI105130
aI4252
aa(lp157
I82886
aI63371
aI43914
aI82587
aI61511
aI43612
aI52838
aI51816
aI62753
aI52517
aI51665
aI58249
aa(lp158
I73906
aI64283
aI45429
aI71554
aI62187
aI45153
aI50793
aI50608
aI58423
aI46911
aI49234
aI47876
aa(lp159
I73078
aI72721
aI37973
aI73079
aI75594
aI37283
aI50382
aI74235
aI50242
aI48560
aI72069
aI48865
aa(lp160
I74908
aI69483
aI31985
aI76845
aI71193
aI23322
aI59549
aI80070
aI23112
aI59531
aI77840
aI21052
aa(lp161
I74278
aI77201
aI21115
aI70263
aI74595
aI24624
aI56161
aI86790
aI27637
aI54368
aI84931
aI24285
aa(lp162
I71658
aI75034
aI17721
aI73576
aI77233
aI14091
aI60612
aI86768
aI13957
aI53235
aI83140
aI14800
aa(lp163
I78577
aI57146
aI37728
aI81305
aI60605
aI39275
aI60491
aI58496
aI73041
aI58581
aI55257
aI70003
aa(lp164
I69351
aI70164
aI30408
aI67460
aI72234
aI28388
aI49881
aI86339
aI37845
aI48603
aI84592
aI35881
aa(lp165
I63689
aI65318
aI29397
aI61517
aI67030
aI35982
aI43016
aI73666
aI49531
aI42224
aI76682
aI42288
aa(lp166
I76069
aI87861
aI14150
aI72800
aI90666
aI11910
aI53782
aI111691
aI11531
aI52053
aI108609
aI8189
aa(lp167
I68985
aI63396
aI20221
aI67919
aI67015
aI19358
aI42420
aI95663
aI33957
aI41097
aI92883
aI34334
aa(lp168
I82360
aI61223
aI53245
aI80484
aI62953
aI48893
aI63458
aI60387
aI53089
aI63332
aI57943
aI49671
aa(lp169
I80488
aI74151
aI32220
aI78398
aI71532
aI33167
aI52808
aI64568
aI40269
aI51348
aI62430
aI35948
aa(lp170
I65566
aI50837
aI65688
aI66967
aI49870
aI65581
aI42412
aI37715
aI86354
aI40114
aI35205
aI81986
aa(lp171
I67692
aI81360
aI12789
aI66016
aI85637
aI11892
aI45128
aI111896
aI14924
aI43629
aI108184
aI11518
aa(lp172
I71004
aI60086
aI34319
aI69808
aI65000
aI34332
aI47011
aI72529
aI50425
aI46211
aI70941
aI50392
aa(lp173
I66335
aI60944
aI31684
aI63713
aI63185
aI27945
aI44555
aI82203
aI46497
aI41634
aI77465
aI45908
aa(lp174
I72429
aI78319
aI33002
aI70067
aI79971
aI33194
aI49583
aI85699
aI33335
aI47404
aI83775
aI29135
aa(lp175
I70121
aI57505
aI18443
aI66297
aI61102
aI18005
aI46556
aI83585
aI23437
aI47039
aI87002
aI19173
aa(lp176
I72252
aI87775
aI11506
aI70204
aI87667
aI8642
aI57714
aI101291
aI8391
aI53938
aI96477
aI7601
aa(lp177
I81442
aI67618
aI12653
aI80912
aI70916
aI13085
aI51626
aI111299
aI18845
aI49219
aI106679
aI19089
aa(lp178
I80014
aI70573
aI48097
aI77100
aI68280
aI43449
aI61879
aI73717
aI38308
aI59090
aI72594
aI31978
aa(lp179
I73974
aI72368
aI30587
aI75648
aI70211
aI30717
aI58099
aI73447
aI50870
aI56274
aI75711
aI40847
aa(lp180
I67383
aI76873
aI27856
aI66441
aI77494
aI26647
aI50048
aI83910
aI26147
aI48104
aI80558
aI28328
aa(lp181
I67673
aI71680
aI47185
aI68374
aI71889
aI44232
aI48229
aI62400
aI64389
aI49654
aI61570
aI64823
aa(lp182
I67279
aI52084
aI37687
aI67071
aI51224
aI36976
aI57192
aI56961
aI81627
aI55565
aI56780
aI78937
aa(lp183
I69372
aI76606
aI27397
aI67271
aI77146
aI26490
aI50894
aI97919
aI32224
aI51019
aI98067
aI30900
aa(lp184
I71985
aI71597
aI20539
aI72059
aI71631
aI19790
aI50466
aI92669
aI21406
aI47987
aI87844
aI20240
aa(lp185
I68252
aI59906
aI30859
aI66283
aI61968
aI31418
aI42350
aI73151
aI44215
aI41577
aI74106
aI40688
aa(lp186
I67285
aI64517
aI22493
aI67142
aI66708
aI19684
aI49361
aI86939
aI31472
aI48392
aI85294
aI29040
aa(lp187
I67929
aI78780
aI7891
aI66105
aI82400
aI8567
aI49052
aI120761
aI12870
aI49069
aI116869
aI9335
aa(lp188
I78064
aI61402
aI31239
aI74103
aI63284
aI27169
aI57401
aI76753
aI38098
aI56611
aI72491
aI36678
aa(lp189
I67031
aI64896
aI42965
aI65670
aI64940
aI39880
aI52247
aI71873
aI57890
aI47979
aI66687
aI51050
aa(lp190
I71714
aI55037
aI57547
aI74263
aI58251
aI58224
aI53365
aI52148
aI54360
aI51635
aI50667
aI54861
aa(lp191
I72678
aI62645
aI41427
aI71234
aI64311
aI42737
aI46218
aI59673
aI63276
aI46057
aI61796
aI50275
aa(lp192
I78514
aI74179
aI18884
aI76623
aI79403
aI17902
aI65070
aI86233
aI14001
aI61597
aI86016
aI12064
aa(lp193
I70838
aI56939
aI17859
aI69969
aI58933
aI19841
aI42775
aI75896
aI41703
aI42308
aI77729
aI37204
aa(lp194
I70533
aI78700
aI10984
aI67413
aI79254
aI12943
aI52211
aI103704
aI12314
aI50914
aI101438
aI14195
aa(lp195
I72696
aI63791
aI48385
aI74796
aI65351
aI50376
aI50134
aI51322
aI60519
aI46896
aI49242
aI56252
aa(lp196
I74727
aI65233
aI17013
aI74976
aI68714
aI14136
aI47573
aI98333
aI21918
aI45973
aI96245
aI20089
aa(lp197
I69055
aI79354
aI28250
aI66360
aI75663
aI30750
aI51932
aI90542
aI41664
aI50194
aI91767
aI32457
aa(lp198
I72794
aI69384
aI36116
aI71331
aI73589
aI40127
aI51782
aI82697
aI47715
aI48590
aI82482
aI43306
aa(lp199
I72539
aI68674
aI13389
aI69648
aI75122
aI12640
aI45465
aI101635
aI14504
aI44358
aI99856
aI12371
aa(lp200
I73601
aI78323
aI27895
aI72919
aI74937
aI25509
aI48682
aI89512
aI34696
aI47446
aI85826
aI38914
aa(lp201
I73486
aI72498
aI4661
aI74365
aI77222
aI4598
aI56473
aI118088
aI6057
aI54895
aI113757
aI5165
aa(lp202
I68777
aI60701
aI22522
aI66803
aI63918
aI22441
aI49366
aI83349
aI35466
aI48496
aI82414
aI33471
aa(lp203
I79770
aI80120
aI11329
aI76711
aI79042
aI9354
aI67914
aI109203
aI7104
aI60734
aI101024
aI7963
aa(lp204
I71096
aI65462
aI29790
aI68227
aI68659
aI28355
aI43608
aI82924
aI39837
aI43604
aI86071
aI31173
aa(lp205
I67359
aI77008
aI11234
aI66475
aI79843
aI11147
aI47786
aI107433
aI15762
aI45085
aI100251
aI14914
aa(lp206
I64872
aI81219
aI23517
aI63582
aI84472
aI22489
aI46958
aI91311
aI42485
aI45227
aI88835
aI38621
aa(lp207
I69014
aI61387
aI52110
aI64661
aI57992
aI48102
aI52378
aI60664
aI57953
aI50629
aI56769
aI60736
aa(lp208
I79359
aI64654
aI48081
aI80479
aI68131
aI52809
aI57849
aI56856
aI61393
aI58845
aI58077
aI59644
aa(lp209
I73159
aI63611
aI21328
aI71040
aI67360
aI21347
aI46789
aI86871
aI29268
aI44949
aI82984
aI28731
aa(lp210
I76378
aI68706
aI33833
aI77188
aI70425
aI36671
aI72869
aI58019
aI25527
aI73795
aI60707
aI19866
aa(lp211
I70838
aI73551
aI8491
aI68810
aI76994
aI9892
aI52388
aI119304
aI5188
aI49895
aI115399
aI4509
aa(lp212
I68869
aI58677
aI19132
aI68241
aI61203
aI17795
aI45566
aI76650
aI36382
aI44114
aI72686
aI36986
aa(lp213
I77090
aI67216
aI12956
aI76718
aI71758
aI14707
aI52682
aI101573
aI20046
aI50039
aI96600
aI15074
aa(lp214
I72226
aI86701
aI5855
aI71426
aI87326
aI3468
aI56175
aI127285
aI3466
aI54402
aI124141
aI3106
aa(lp215
I81258
aI74747
aI6140
aI79744
aI77453
aI5509
aI57339
aI109408
aI1921
aI56025
aI106389
aI1377
aa(lp216
I74399
aI58874
aI44840
aI73295
aI59545
aI46788
aI54020
aI55054
aI60215
aI51510
aI53288
aI59596
aa(lp217
I75760
aI71585
aI18498
aI72803
aI76635
aI18941
aI46989
aI100808
aI20629
aI46776
aI99116
aI14411
aa(lp218
I67012
aI56311
aI11036
aI68738
aI63357
aI11507
aI47565
aI94800
aI16576
aI45883
aI91823
aI13769
aa(lp219
I70354
aI65498
aI24703
aI67376
aI65860
aI28627
aI55525
aI75134
aI32012
aI52230
aI71487
aI27244
aa(lp220
I74094
aI78445
aI8473
aI73491
aI77148
aI8326
aI59403
aI104250
aI8074
aI60740
aI100475
aI8313
aa(lp221
I77442
aI55575
aI52481
aI78342
aI55802
aI47864
aI64625
aI49663
aI54489
aI66259
aI50001
aI48222
aa(lp222
I76773
aI78867
aI12276
aI75829
aI81538
aI10024
aI59831
aI110788
aI6176
aI57015
aI106344
aI4572
aa(lp223
I75445
aI82695
aI14751
aI77352
aI88406
aI12350
aI52298
aI113507
aI19812
aI48209
aI104082
aI19904
aa(lp224
I68792
aI65526
aI33545
aI66896
aI67101
aI32709
aI47150
aI75117
aI50631
aI46127
aI72142
aI46595
aa(lp225
I69054
aI62530
aI19545
aI68504
aI65986
aI17710
aI47069
aI90318
aI34925
aI45523
aI89278
aI30254
aa(lp226
I65348
aI59118
aI51978
aI66486
aI58091
aI55345
aI44451
aI50822
aI66711
aI43015
aI48176
aI66229
aa(lp227
I75003
aI80703
aI4727
aI73589
aI83180
aI4301
aI56675
aI118418
aI2744
aI53794
aI114184
aI1833
aa(lp228
I63251
aI56519
aI57248
aI64362
aI56199
aI59924
aI46188
aI48837
aI79687
aI45877
aI48385
aI71320
aa(lp229
I64482
aI77717
aI31657
aI65957
aI81110
aI29910
aI43602
aI87002
aI38040
aI42769
aI83746
aI34759
aa(lp230
I75194
aI63371
aI55392
aI72704
aI62437
aI54625
aI50157
aI53688
aI62563
aI48634
aI52482
aI57527
aa(lp231
I76258
aI71873
aI17849
aI75733
aI75756
aI13094
aI49928
aI107010
aI9561
aI48529
aI104703
aI7836
aa(lp232
I70536
aI74461
aI22955
aI67999
aI74021
aI23759
aI52622
aI86271
aI34257
aI51045
aI85162
aI31683
aa(lp233
I69604
aI53919
aI52294
aI71001
aI53569
aI55747
aI45700
aI45284
aI73137
aI45104
aI41760
aI69669
aa(lp234
I76920
aI70357
aI10107
aI80789
aI72615
aI11035
aI65730
aI96394
aI7965
aI63978
aI86035
aI6782
aa(lp235
I74325
aI69123
aI18759
aI72390
aI75482
aI20289
aI51417
aI93360
aI31619
aI49453
aI91972
aI25496
aa(lp236
I66228
aI63989
aI19065
aI65385
aI68284
aI18916
aI46231
aI85196
aI32202
aI43912
aI83671
aI29856
aa(lp237
I70165
aI80338
aI10090
aI68740
aI81998
aI9228
aI53909
aI112483
aI9343
aI51908
aI106973
aI8458
aa(lp238
I72181
aI68569
aI10534
aI70323
aI70576
aI8567
aI50773
aI105023
aI11576
aI50291
aI103475
aI10416
aa(lp239
I60965
aI67396
aI22379
aI61076
aI69885
aI21516
aI47614
aI91878
aI33954
aI45039
aI89917
aI31966
aa(lp240
I78853
aI71310
aI17049
aI76159
aI75731
aI14056
aI50416
aI103915
aI23994
aI47454
aI101967
aI19923
aa(lp241
I76915
aI74954
aI8988
aI75552
aI78386
aI5786
aI51136
aI108832
aI7641
aI50299
aI107455
aI5718
aa(lp242
I79564
aI58888
aI49272
aI82103
aI57628
aI50931
aI54004
aI51981
aI66212
aI52360
aI51495
aI59867
aa(lp243
I84026
aI65552
aI28230
aI84879
aI67374
aI23977
aI65618
aI74426
aI29105
aI61878
aI74576
aI26674
aa(lp244
I79539
aI79824
aI25607
aI78456
aI82048
aI19538
aI59916
aI97019
aI24125
aI57919
aI95882
aI18528
aa(lp245
I67330
aI67039
aI20387
aI65139
aI70329
aI19368
aI43040
aI91087
aI31140
aI41630
aI89766
aI28616
aa(lp246
I73564
aI73853
aI13511
aI71404
aI78456
aI13629
aI52721
aI96412
aI19547
aI47078
aI90631
aI18206
aa(lp247
I71633
aI83721
aI19728
aI71550
aI86098
aI23515
aI48212
aI107961
aI18312
aI46903
aI105422
aI13418
aa(lp248
I64001
aI64526
aI21112
aI61831
aI68453
aI18107
aI47147
aI89394
aI25080
aI45282
aI88975
aI22272
aa(lp249
I64679
aI71452
aI17471
aI63651
aI75954
aI16085
aI45944
aI103100
aI20902
aI44405
aI98842
aI15782
aa(lp250
I80444
aI75851
aI40918
aI81240
aI72029
aI39263
aI63446
aI70472
aI36524
aI61553
aI69035
aI28947
aa(lp251
I70732
aI72608
aI19670
aI71359
aI76111
aI15595
aI48882
aI107033
aI18753
aI46879
aI103602
aI17889
aa(lp252
I78623
aI81488
aI4066
aI78292
aI84787
aI3834
aI54791
aI116507
aI7751
aI52467
aI113341
aI7443
aa(lp253
I73911
aI65462
aI20727
aI70170
aI70602
aI20049
aI47230
aI97239
aI24580
aI45408
aI95976
aI22736
aa(lp254
I70895
aI77642
aI9157
aI67978
aI84437
aI7139
aI47675
aI109303
aI10439
aI46203
aI106877
aI6114
aa(lp255
I72657
aI65464
aI24518
aI70358
aI69317
aI23594
aI40440
aI84890
aI31052
aI40833
aI87166
aI27104
aa(lp256
I75590
aI65664
aI36844
aI76746
aI64938
aI35130
aI58779
aI63637
aI43391
aI57805
aI58879
aI44411
aa(lp257
I72857
aI69318
aI11986
aI70842
aI71881
aI13542
aI63127
aI97487
aI11293
aI59614
aI87291
aI12199
aa(lp258
I75338
aI57733
aI65489
aI73644
aI57686
aI63164
aI50471
aI50101
aI72680
aI47781
aI48631
aI68013
aa(lp259
I74396
aI80218
aI6945
aI74095
aI84051
aI5948
aI54173
aI111618
aI5514
aI54195
aI109137
aI4800
aa(lp260
I77284
aI76879
aI6328
aI73964
aI83511
aI4792
aI54353
aI119807
aI2715
aI52732
aI113639
aI1493
aa(lp261
I78086
aI75041
aI30462
aI77166
aI76073
aI30617
aI60603
aI78280
aI35296
aI55038
aI79024
aI32802
aa(lp262
I73910
aI72662
aI27555
aI70936
aI72148
aI22113
aI49007
aI83717
aI26171
aI48143
aI80897
aI20765
aa(lp263
I73772
aI75041
aI14560
aI70754
aI79163
aI13897
aI48913
aI107278
aI13209
aI46989
aI101764
aI12025
aa(lp264
I71243
aI65354
aI25251
aI72880
aI68183
aI21967
aI46109
aI80188
aI40500
aI42791
aI76087
aI42285
aa(lp265
I68092
aI70826
aI11075
aI67964
aI72800
aI12684
aI51038
aI91207
aI31390
aI50582
aI90261
aI30332
aa(lp266
I70847
aI72914
aI23783
aI69344
aI72740
aI24117
aI59184
aI79257
aI29722
aI57373
aI78169
aI23296
aa(lp267
I75496
aI68073
aI17206
aI74354
aI70998
aI14666
aI59088
aI84353
aI17830
aI55258
aI82334
aI16226
aa(lp268
I69653
aI71434
aI18049
aI71191
aI74639
aI16622
aI48636
aI96720
aI22529
aI46065
aI93808
aI21377
aa(lp269
I71037
aI74553
aI15031
aI67362
aI76789
aI12119
aI50583
aI107421
aI11323
aI48595
aI104649
aI9838
aa(lp270
I75110
aI60574
aI25642
aI69469
aI64221
aI26465
aI50960
aI83667
aI36875
aI47027
aI80076
aI34444
aa(lp271
I68949
aI64242
aI26356
aI66599
aI64722
aI27713
aI43767
aI79204
aI40931
aI43849
aI78569
aI35988
aa(lp272
I71969
aI62726
aI27138
aI69978
aI66042
aI25623
aI47420
aI88396
aI37883
aI46363
aI86981
aI33606
aa(lp273
I79421
aI75543
aI1854
aI78481
aI77336
aI1138
aI67392
aI117417
aI225
aI65212
aI104692
aI167
aa(lp274
I72240
aI69896
aI21217
aI70315
aI73254
aI16402
aI47422
aI95523
aI23374
aI46626
aI94790
aI22056
aa(lp275
I69368
aI80436
aI18766
aI67271
aI85053
aI20030
aI46755
aI106374
aI22117
aI44492
aI100696
aI21554
aa(lp276
I70676
aI77767
aI8465
aI70223
aI79941
aI7455
aI53090
aI111800
aI6162
aI52642
aI109276
aI5402
aa(lp277
I65721
aI59494
aI26182
aI64840
aI65293
aI25687
aI42522
aI80627
aI42361
aI39869
aI76745
aI36433
aa(lp278
I73678
aI70573
aI14747
aI72631
aI77073
aI12225
aI49124
aI105643
aI20893
aI47625
aI103554
aI14528
aa.